###############################################################################
#                                                                             #
# IAR ELF Linker V6.21.1.52794/W32 for ARM              13/Jan/2016  16:16:21 #
# Copyright 2007-2011 IAR Systems AB.                                         #
#                                                                             #
#    Output file  =  D:\Gpay01\Gpay010511\Debug\Exe\ARM_SNPC.out              #
#    Map file     =  D:\Gpay01\Gpay010511\Debug\List\ARM_SNPC.map             #
#    Command line =  D:\Gpay01\Gpay010511\Debug\Obj\ACTCardProc.o             #
#                    D:\Gpay01\Gpay010511\Debug\Obj\Arm70_POS_funtion.o       #
#                    D:\Gpay01\Gpay010511\Debug\Obj\AscLog.o                  #
#                    D:\Gpay01\Gpay010511\Debug\Obj\CRCommand.o               #
#                    D:\Gpay01\Gpay010511\Debug\Obj\CRMemCopy.o               #
#                    D:\Gpay01\Gpay010511\Debug\Obj\CRMemFunc.o               #
#                    D:\Gpay01\Gpay010511\Debug\Obj\CRPowerOn.o               #
#                    D:\Gpay01\Gpay010511\Debug\Obj\CRPrint.o                 #
#                    D:\Gpay01\Gpay010511\Debug\Obj\CRPumpBusy.o              #
#                    D:\Gpay01\Gpay010511\Debug\Obj\CRPumpCall.o              #
#                    D:\Gpay01\Gpay010511\Debug\Obj\CRPumpEOT.o               #
#                    D:\Gpay01\Gpay010511\Debug\Obj\CRSFunc.o                 #
#                    D:\Gpay01\Gpay010511\Debug\Obj\CRVaribles.o              #
#                    D:\Gpay01\Gpay010511\Debug\Obj\CardDrive.o               #
#                    D:\Gpay01\Gpay010511\Debug\Obj\CardReader.o              #
#                    D:\Gpay01\Gpay010511\Debug\Obj\CardReady.o               #
#                    D:\Gpay01\Gpay010511\Debug\Obj\CashTrans.o               #
#                    D:\Gpay01\Gpay010511\Debug\Obj\Cstartup.o                #
#                    D:\Gpay01\Gpay010511\Debug\Obj\Cstartup_SAM7.o           #
#                    D:\Gpay01\Gpay010511\Debug\Obj\DbugUsart.o               #
#                    D:\Gpay01\Gpay010511\Debug\Obj\DbugUsartApp.o            #
#                    D:\Gpay01\Gpay010511\Debug\Obj\DispPumpMsg.o             #
#                    D:\Gpay01\Gpay010511\Debug\Obj\Display.o                 #
#                    D:\Gpay01\Gpay010511\Debug\Obj\ExCRProc.o                #
#                    D:\Gpay01\Gpay010511\Debug\Obj\GreyCard.o                #
#                    D:\Gpay01\Gpay010511\Debug\Obj\ICCardCommand.o           #
#                    D:\Gpay01\Gpay010511\Debug\Obj\ICCardInProc.o            #
#                    D:\Gpay01\Gpay010511\Debug\Obj\ICCardInProc2.o           #
#                    D:\Gpay01\Gpay010511\Debug\Obj\ICCardProc.o              #
#                    D:\Gpay01\Gpay010511\Debug\Obj\Journal.o                 #
#                    D:\Gpay01\Gpay010511\Debug\Obj\KeyMask.o                 #
#                    D:\Gpay01\Gpay010511\Debug\Obj\Keypad.o                  #
#                    D:\Gpay01\Gpay010511\Debug\Obj\Keypad2.o                 #
#                    D:\Gpay01\Gpay010511\Debug\Obj\KeypadMain.o              #
#                    D:\Gpay01\Gpay010511\Debug\Obj\Message.o                 #
#                    D:\Gpay01\Gpay010511\Debug\Obj\POS.o                     #
#                    D:\Gpay01\Gpay010511\Debug\Obj\POSMode2.o                #
#                    D:\Gpay01\Gpay010511\Debug\Obj\PSAMCommand.o             #
#                    D:\Gpay01\Gpay010511\Debug\Obj\PSAMProc.o                #
#                    D:\Gpay01\Gpay010511\Debug\Obj\Pcomm.o                   #
#                    D:\Gpay01\Gpay010511\Debug\Obj\Pdprotect.o               #
#                    D:\Gpay01\Gpay010511\Debug\Obj\Pinit.o                   #
#                    D:\Gpay01\Gpay010511\Debug\Obj\Pos2DataFlash.o           #
#                    D:\Gpay01\Gpay010511\Debug\Obj\PosMode2Func.o            #
#                    D:\Gpay01\Gpay010511\Debug\Obj\PosVar.o                  #
#                    D:\Gpay01\Gpay010511\Debug\Obj\PowerDown.o               #
#                    D:\Gpay01\Gpay010511\Debug\Obj\Pump.o                    #
#                    D:\Gpay01\Gpay010511\Debug\Obj\Pvar.o                    #
#                    D:\Gpay01\Gpay010511\Debug\Obj\RIDCardProc.o             #
#                    D:\Gpay01\Gpay010511\Debug\Obj\Schedule.o                #
#                    D:\Gpay01\Gpay010511\Debug\Obj\Screen.o                  #
#                    D:\Gpay01\Gpay010511\Debug\Obj\SocialCard.o              #
#                    D:\Gpay01\Gpay010511\Debug\Obj\TestCashTrans.o           #
#                    D:\Gpay01\Gpay010511\Debug\Obj\TestPos2Mode.o            #
#                    D:\Gpay01\Gpay010511\Debug\Obj\Verify.o                  #
#                    D:\Gpay01\Gpay010511\Debug\Obj\Voice.o                   #
#                    D:\Gpay01\Gpay010511\Debug\Obj\WorkMode.o                #
#                    D:\Gpay01\Gpay010511\Debug\Obj\WriteLog.o                #
#                    D:\Gpay01\Gpay010511\Debug\Obj\at24.o                    #
#                    D:\Gpay01\Gpay010511\Debug\Obj\at45.o                    #
#                    D:\Gpay01\Gpay010511\Debug\Obj\at83.o                    #
#                    D:\Gpay01\Gpay010511\Debug\Obj\at83c26_app.o             #
#                    D:\Gpay01\Gpay010511\Debug\Obj\control.o                 #
#                    D:\Gpay01\Gpay010511\Debug\Obj\define.o                  #
#                    D:\Gpay01\Gpay010511\Debug\Obj\f_irq.o                   #
#                    D:\Gpay01\Gpay010511\Debug\Obj\init.o                    #
#                    D:\Gpay01\Gpay010511\Debug\Obj\key.o                     #
#                    D:\Gpay01\Gpay010511\Debug\Obj\lcd.o                     #
#                    D:\Gpay01\Gpay010511\Debug\Obj\list.o                    #
#                    D:\Gpay01\Gpay010511\Debug\Obj\m1172.o                   #
#                    D:\Gpay01\Gpay010511\Debug\Obj\main.o                    #
#                    D:\Gpay01\Gpay010511\Debug\Obj\memoryCheck.o             #
#                    D:\Gpay01\Gpay010511\Debug\Obj\print.o                   #
#                    D:\Gpay01\Gpay010511\Debug\Obj\record.o                  #
#                    D:\Gpay01\Gpay010511\Debug\Obj\sem.o                     #
#                    D:\Gpay01\Gpay010511\Debug\Obj\spi.o                     #
#                    D:\Gpay01\Gpay010511\Debug\Obj\tc.o                      #
#                    D:\Gpay01\Gpay010511\Debug\Obj\testPOS2.o                #
#                    D:\Gpay01\Gpay010511\Debug\Obj\testPump.o                #
#                    D:\Gpay01\Gpay010511\Debug\Obj\tools.o                   #
#                    D:\Gpay01\Gpay010511\Debug\Obj\twi.o                     #
#                    D:\Gpay01\Gpay010511\Debug\Obj\usart.o                   #
#                    D:\Gpay01\Gpay010511\Debug\Obj\var.o -o                  #
#                    D:\Gpay01\Gpay010511\Debug\Exe\ARM_SNPC.out --redirect   #
#                    _Printf=_PrintfFull --redirect _Scanf=_ScanfFull --map   #
#                    D:\Gpay01\Gpay010511\Debug\List\ARM_SNPC.map --log       #
#                    initialization,modules,sections,veneers --log_file       #
#                    D:\Gpay01\Gpay010511\Debug\List\ARM_SNPC.log --config    #
#                    D:\Gpay01\Gpay010511\Common\SAM7SE512\Resource\at91SAM7S #
#                    E512_FLASH.icf --semihosting --entry                     #
#                    __iar_program_start --vfe                                #
#                                                                             #
#                                                                             #
###############################################################################

*******************************************************************************
*** RUNTIME MODEL ATTRIBUTES
***

CppFlavor       = *
__Heap_Handler  = DLMalloc
__SystemLibrary = DLib


*******************************************************************************
*** PLACEMENT SUMMARY
***

"A1":  place at 0x00000000 { ro section .intvec };
"P1":  place in [from 0x00000100 to 0x0007ffff] { ro };
"P2":  place in [from 0x00200000 to 0x00207fff] {
          rw, block CSTACK, block SVC_STACK, block IRQ_STACK, block FIQ_STACK,
          block UND_STACK, block ABT_STACK, block HEAP };

  Section            Kind        Address     Size  Object
  -------            ----        -------     ----  ------
"A1":                                        0x40
  .intvec            ro code  0x00000000     0x40  Cstartup.o [1]
                            - 0x00000040     0x40

"P1":                                     0x50b3c
  .text              ro code  0x00000100   0x720c  list.o [1]
  .text              ro code  0x0000730c     0x2c  tc.o [1]
  .text              ro code  0x00007338    0x228  spi.o [1]
  .text              ro code  0x00007560    0x81c  at45.o [1]
  .text              ro code  0x00007d7c    0xdb8  tools.o [1]
  .text              ro code  0x00008b34    0x570  tc.o [1]
  .text              ro code  0x000090a4     0x54  strlen.o [5]
  .text              ro code  0x000090f8     0xd4  DbugUsart.o [1]
  .text              ro code  0x000091cc     0x7c  memoryCheck.o [1]
  .text              ro code  0x00009248     0x18  tools.o [1]
  .text              ro code  0x00009260     0x30  list.o [1]
  .text              ro code  0x00009290   0x1ae8  AscLog.o [1]
  .text              ro code  0x0000ad78    0xcd4  record.o [1]
  .text              ro code  0x0000ba4c     0x2c  tools.o [1]
  .text              ro code  0x0000ba78    0x1d4  I32DivMod.o [5]
  .text              ro code  0x0000bc4c     0x74  memcmp.o [5]
  .text              ro code  0x0000bcc0     0x7c  ABImemset.o [5]
  .text              ro code  0x0000bd3c    0x6d0  at24.o [1]
  .text              ro code  0x0000c40c    0x22c  usart.o [1]
  .text              ro code  0x0000c638    0xe24  m1172.o [1]
  .text              ro code  0x0000d45c     0x10  tools.o [1]
  .text              ro code  0x0000d46c    0xb48  control.o [1]
  .text              ro code  0x0000dfb4     0x10  tools.o [1]
  .text              ro code  0x0000dfc4     0x10  tools.o [1]
  .text              ro code  0x0000dfd4     0x28  usart.o [1]
  .text              ro code  0x0000dffc     0x38  usart.o [1]
  .text              ro code  0x0000e034     0x48  usart.o [1]
  .text              ro code  0x0000e07c     0x18  tools.o [1]
  .text              ro code  0x0000e094     0x18  usart.o [1]
  .text              ro code  0x0000e0ac     0x4c  vsprintf.o [3]
  .text              ro code  0x0000e0f8     0x94  memchr.o [5]
  .text              ro code  0x0000e18c   0x2ae4  lcd.o [1]
  .text              ro code  0x00010c70     0x5c  sprintf.o [3]
  .text              ro code  0x00010ccc     0x68  record.o [1]
  .text              ro code  0x00010d34     0x54  record.o [1]
  .text              ro code  0x00010d88     0xd4  ABImemcpy.o [5]
  .text              ro code  0x00010e5c      0x4  IntDivZer.o [5]
  .text              ro code  0x00010e60     0x20  at83.o [1]
  .text              ro code  0x00010e80     0x50  at83.o [1]
  .text              ro code  0x00010ed0      0xc  at83.o [1]
  .text              ro code  0x00010edc     0x14  at83.o [1]
  .text              ro code  0x00010ef0     0x10  at83.o [1]
  .text              ro code  0x00010f00     0x10  at83.o [1]
  .text              ro code  0x00010f10     0x40  at83.o [1]
  .text              ro code  0x00010f50     0x14  at83.o [1]
  .text              ro code  0x00010f64      0xc  at83.o [1]
  .text              ro code  0x00010f70     0x78  usart.o [1]
  .text              ro code  0x00010fe8      0xc  usart.o [1]
  .text              ro code  0x00010ff4      0xc  usart.o [1]
  .text              ro code  0x00011000      0x8  usart.o [1]
  .text              ro code  0x00011008   0x13bc  init.o [1]
  .text              ro code  0x000123c4   0x15f6  xprintffull.o [3]
  .text              ro code  0x000139ba     0x2e  copy_init3.o [5]
  .text              ro code  0x000139e8      0x8  init.o [1]
  .text              ro code  0x000139f0      0xc  init.o [1]
  .text              ro code  0x000139fc     0x24  init.o [1]
  .text              ro code  0x00013a20   0x2ca4  CardDrive.o [1]
  .text              ro code  0x000166c4   0x15ec  at83c26_app.o [1]
  .text              ro code  0x00017cb0     0x40  init.o [1]
  .text              ro code  0x00017cf0     0x5c  init.o [1]
  .text              ro code  0x00017d4c     0x90  init.o [1]
  .text              ro code  0x00017ddc     0x18  twi.o [1]
  .text              ro code  0x00017df4   0x1a10  at83.o [1]
  .text              ro code  0x00019804     0x58  init.o [1]
  .text              ro code  0x0001985c      0x8  init.o [1]
  .text              ro code  0x00019864     0x1c  init.o [1]
  .text              ro code  0x00019880     0x70  init.o [1]
  .text              ro code  0x000198f0     0x14  init.o [1]
  .text              ro code  0x00019904     0x28  init.o [1]
  .text              ro code  0x0001992c     0xc8  init.o [1]
  .text              ro code  0x000199f4    0x2b4  key.o [1]
  .text              ro code  0x00019ca8   0x3858  print.o [1]
  .text              ro code  0x0001d500     0x20  strchr.o [5]
  .text              ro code  0x0001d520    0x128  I64DivMod.o [5]
  .text              ro code  0x0001d648     0x7c  xdnorm.o [4]
  .text              ro code  0x0001d6c4     0x38  DblCmpLe.o [4]
  .text              ro code  0x0001d6fc     0x38  DblCmpGe.o [4]
  .text              ro code  0x0001d734    0x1c8  xdscale.o [4]
  .text              ro code  0x0001d8fc     0x60  DblToS32.o [4]
  .text              ro code  0x0001d95c     0x60  S32ToDbl.o [4]
  .text              ro code  0x0001d9bc    0x1f0  DblSub.o [4]
  .text              ro code  0x0001dbac    0x1f8  DblMul.o [4]
  .text              ro code  0x0001dda4    0x338  DblDiv.o [4]
  .text              ro code  0x0001e0dc     0x3c  DblToU32.o [4]
  .text              ro code  0x0001e118     0x10  U32ToDbl.o [4]
  .text              ro code  0x0001e128     0x38  div.o [3]
  .text              ro code  0x0001e160     0x18  at83.o [1]
  .text              ro code  0x0001e178    0xb0c  CRMemCopy.o [1]
  .text              ro code  0x0001ec84      0x4  I64DivZer.o [5]
  .text              ro code  0x0001ec88    0x140  DblAdd.o [4]
  .text              ro code  0x0001edc8     0x10  Keypad.o [1]
  .text              ro code  0x0001edd8     0x30  ICCardProc.o [1]
  .text              ro code  0x0001ee08    0x1c8  WriteLog.o [1]
  .text              ro code  0x0001efd0    0x528  SocialCard.o [1]
  .text              ro code  0x0001f4f8   0x25cc  ICCardCommand.o [1]
  .text              ro code  0x00021ac4    0xf18  CRCommand.o [1]
  .text              ro code  0x000229dc      0x8  usart.o [1]
  .text              ro code  0x000229e4      0x8  usart.o [1]
  .text              ro code  0x000229ec    0x100  Message.o [1]
  .text              ro code  0x00022aec   0x21c4  Display.o [1]
  .text              ro code  0x00024cb0    0x7f4  KeypadMain.o [1]
  .text              ro code  0x000254a4   0x3200  Keypad2.o [1]
  .text              ro code  0x000286a4     0x20  Keypad2.o [1]
  .text              ro code  0x000286c4     0x10  Keypad2.o [1]
  .text              ro code  0x000286d4     0x10  Keypad2.o [1]
  .text              ro code  0x000286e4    0x21c  xstoul.o [3]
  .text              ro code  0x00028900      0xc  errno.o [3]
  .text              ro code  0x0002890c      0x4  xtls.o [3]
  .text              ro code  0x00028910   0x67e0  Keypad.o [1]
  .text              ro code  0x0002f0f0     0x30  Keypad.o [1]
  .text              ro code  0x0002f120     0x30  Keypad.o [1]
  .text              ro code  0x0002f150   0x49a8  DbugUsartApp.o [1]
  .text              ro code  0x00033af8    0x65c  CRPrint.o [1]
  .text              ro code  0x00034154   0x361c  Pump.o [1]
  .text              ro code  0x00037770    0xb80  Pcomm.o [1]
  .text              ro code  0x000382f0    0x39c  DispPumpMsg.o [1]
  .text              ro code  0x0003868c    0x14c  Verify.o [1]
  .text              ro code  0x000387d8     0x10  Pump.o [1]
  .text              ro code  0x000387e8   0x2680  ICCardInProc.o [1]
  .text              ro code  0x0003ae68    0xf40  ICCardInProc2.o [1]
  .text              ro code  0x0003bda8   0x17e4  CRSFunc.o [1]
  .text              ro code  0x0003d58c     0x10  ICCardInProc2.o [1]
  .text              ro code  0x0003d59c     0x10  ICCardInProc2.o [1]
  .text              ro code  0x0003d5ac     0x10  ICCardInProc2.o [1]
  .text              ro code  0x0003d5bc     0x10  ICCardInProc2.o [1]
  .rodata            const    0x0003d5cc   0x2490  Message.o [1]
  .text              ro code  0x0003fa5c   0x23f4  Arm70_POS_funtion.o [1]
  .text              ro code  0x00041e50   0x2078  CRPumpCall.o [1]
  .text              ro code  0x00043ec8   0x1854  PSAMCommand.o [1]
  .text              ro code  0x0004571c   0x1b14  Journal.o [1]
  .text              ro code  0x00047230   0x14a8  CRPumpBusy.o [1]
  .rodata            const    0x000486d8    0xf18  Screen.o [1]
  .text              ro code  0x000495f0    0xa88  PosVar.o [1]
  .text              ro code  0x0004a078    0xa34  ExCRProc.o [1]
  .text              ro code  0x0004aaac    0x8d0  GreyCard.o [1]
  .text              ro code  0x0004b37c    0x800  CRPumpEOT.o [1]
  .text              ro code  0x0004bb7c    0x808  CRPowerOn.o [1]
  .text              ro code  0x0004c384    0x7cc  f_irq.o [1]
  .text              ro code  0x0004cb50    0x5f4  CRMemFunc.o [1]
  .text              ro code  0x0004d144    0x5d4  CardReader.o [1]
  .text              ro code  0x0004d718    0x2e0  PSAMProc.o [1]
  .text              ro code  0x0004d9f8    0x560  ICCardProc.o [1]
  .text              ro code  0x0004df58     0xa4  CardReady.o [1]
  .text              ro code  0x0004dffc    0x5a8  Voice.o [1]
  .text              ro code  0x0004e5a4    0x300  POS.o [1]
  .text              ro code  0x0004e8a4    0x274  PowerDown.o [1]
  .rodata            const    0x0004eb18    0x250  lcd.o [1]
  text               ro code  0x0004ed68    0x160  Cstartup.o [1]
  .text              ro code  0x0004eec8    0x154  Schedule.o [1]
  .text              ro code  0x0004f01c     0x10  Schedule.o [1]
  .text              ro code  0x0004f02c    0x14c  Pinit.o [1]
  .text              ro code  0x0004f178    0x148  Cstartup_SAM7.o [1]
  .rodata            const    0x0004f2c0    0x118  Keypad.o [1]
  .rodata            const    0x0004f3d8    0x104  var.o [1]
  .rodata            const    0x0004f4dc     0xd4  AscLog.o [1]
  .rodata            const    0x0004f5b0     0xc8  at45.o [1]
  .rodata            const    0x0004f678     0xb0  at24.o [1]
  .text              ro code  0x0004f728     0xb0  main.o [1]
  .rodata            const    0x0004f7d8     0x64  print.o [1]
  .rodata            const    0x0004f83c     0x5c  print.o [1]
  .text              ro code  0x0004f898     0x54  data_init3.o [5]
  .rodata            const    0x0004f8ec     0x38  print.o [1]
  .rodata            const    0x0004f924     0x30  print.o [1]
  .rodata            const    0x0004f954     0x28  print.o [1]
  .text              ro code  0x0004f97c     0x28  zero_init3.o [5]
  .rodata            const    0x0004f9a4     0x24  DbugUsartApp.o [1]
  .text              ro code  0x0004f9c8     0x24  cmain.o [5]
  .text              ro code  0x0004f9ec      0x8  low_level_init.o [3]
  .text              ro code  0x0004f9f4      0xc  exit.o [3]
  .text              ro code  0x0004fa00     0x20  exit.o [6]
  .text              ro code  0x0004fa20     0x10  cexit.o [5]
  .iar.init_table    const    0x0004fa30     0x24  - Linker created -
  .rodata            const    0x0004fa54     0x20  DbugUsartApp.o [1]
  .rodata            const    0x0004fa74     0x20  DbugUsartApp.o [1]
  .rodata            const    0x0004fa94     0x20  Keypad.o [1]
  .rodata            const    0x0004fab4     0x20  Keypad.o [1]
  .rodata            const    0x0004fad4     0x20  list.o [1]
  .rodata            const    0x0004faf4     0x1c  CRPumpBusy.o [1]
  .rodata            const    0x0004fb10     0x1c  CRPumpEOT.o [1]
  .rodata            const    0x0004fb2c     0x1c  CRPumpEOT.o [1]
  .rodata            const    0x0004fb48     0x1c  DbugUsartApp.o [1]
  .rodata            const    0x0004fb64     0x1c  DbugUsartApp.o [1]
  .rodata            const    0x0004fb80     0x1c  KeyMask.o [1]
  .rodata            const    0x0004fb9c     0x1c  KeyMask.o [1]
  .rodata            const    0x0004fbb8     0x1c  Keypad.o [1]
  .rodata            const    0x0004fbd4     0x1c  Keypad.o [1]
  .rodata            const    0x0004fbf0     0x1c  Keypad.o [1]
  .rodata            const    0x0004fc0c     0x1c  Keypad.o [1]
  .rodata            const    0x0004fc28     0x1c  key.o [1]
  .rodata            const    0x0004fc44     0x1c  list.o [1]
  .rodata            const    0x0004fc60     0x1c  list.o [1]
  .rodata            const    0x0004fc7c     0x1c  list.o [1]
  .rodata            const    0x0004fc98     0x1c  list.o [1]
  .rodata            const    0x0004fcb4     0x1c  print.o [1]
  .rodata            const    0x0004fcd0     0x1c  print.o [1]
  .rodata            const    0x0004fcec     0x1c  var.o [1]
  .rodata            const    0x0004fd08     0x18  CRPumpEOT.o [1]
  .rodata            const    0x0004fd20     0x18  DbugUsartApp.o [1]
  .rodata            const    0x0004fd38     0x18  DbugUsartApp.o [1]
  .rodata            const    0x0004fd50     0x18  DbugUsartApp.o [1]
  .rodata            const    0x0004fd68     0x18  DbugUsartApp.o [1]
  .rodata            const    0x0004fd80     0x18  DbugUsartApp.o [1]
  .rodata            const    0x0004fd98     0x18  DbugUsartApp.o [1]
  .rodata            const    0x0004fdb0     0x18  DbugUsartApp.o [1]
  .rodata            const    0x0004fdc8     0x18  DbugUsartApp.o [1]
  .rodata            const    0x0004fde0     0x18  Keypad.o [1]
  .rodata            const    0x0004fdf8     0x18  Keypad.o [1]
  .rodata            const    0x0004fe10     0x18  Keypad.o [1]
  .rodata            const    0x0004fe28     0x18  Keypad.o [1]
  .rodata            const    0x0004fe40     0x18  Keypad.o [1]
  .rodata            const    0x0004fe58     0x18  Keypad.o [1]
  .rodata            const    0x0004fe70     0x18  Keypad.o [1]
  .rodata            const    0x0004fe88     0x18  SocialCard.o [1]
  .rodata            const    0x0004fea0     0x14  CRSFunc.o [1]
  .rodata            const    0x0004feb4     0x14  CRSFunc.o [1]
  .rodata            const    0x0004fec8     0x14  CRSFunc.o [1]
  .rodata            const    0x0004fedc     0x14  DbugUsartApp.o [1]
  .rodata            const    0x0004fef0     0x14  DbugUsartApp.o [1]
  .rodata            const    0x0004ff04     0x14  DbugUsartApp.o [1]
  .rodata            const    0x0004ff18     0x14  DbugUsartApp.o [1]
  .rodata            const    0x0004ff2c     0x14  DbugUsartApp.o [1]
  .rodata            const    0x0004ff40     0x14  DbugUsartApp.o [1]
  .rodata            const    0x0004ff54     0x14  Display.o [1]
  .rodata            const    0x0004ff68     0x14  Display.o [1]
  .rodata            const    0x0004ff7c     0x14  Display.o [1]
  .rodata            const    0x0004ff90     0x14  Display.o [1]
  .rodata            const    0x0004ffa4     0x14  Display.o [1]
  .rodata            const    0x0004ffb8     0x14  Journal.o [1]
  .rodata            const    0x0004ffcc     0x14  Keypad.o [1]
  .rodata            const    0x0004ffe0     0x14  Keypad.o [1]
  .rodata            const    0x0004fff4     0x14  Keypad.o [1]
  .rodata            const    0x00050008     0x14  Keypad.o [1]
  .rodata            const    0x0005001c     0x14  PowerDown.o [1]
  .rodata            const    0x00050030     0x14  PowerDown.o [1]
  .rodata            const    0x00050044     0x14  PowerDown.o [1]
  .rodata            const    0x00050058     0x14  print.o [1]
  .rodata            const    0x0005006c     0x14  print.o [1]
  .text              ro code  0x00050080     0x14  xsprout.o [3]
  .rodata            const    0x00050094     0x10  AscLog.o [1]
  .rodata            const    0x000500a4     0x10  AscLog.o [1]
  .rodata            const    0x000500b4     0x10  CRMemCopy.o [1]
  .rodata            const    0x000500c4     0x10  CRPumpBusy.o [1]
  .rodata            const    0x000500d4     0x10  CRPumpBusy.o [1]
  .rodata            const    0x000500e4     0x10  CRPumpBusy.o [1]
  .rodata            const    0x000500f4     0x10  CRPumpBusy.o [1]
  .rodata            const    0x00050104     0x10  CardDrive.o [1]
  .rodata            const    0x00050114     0x10  DbugUsart.o [1]
  .rodata            const    0x00050124     0x10  DbugUsartApp.o [1]
  .rodata            const    0x00050134     0x10  DbugUsartApp.o [1]
  .rodata            const    0x00050144     0x10  DbugUsartApp.o [1]
  .rodata            const    0x00050154     0x10  DbugUsartApp.o [1]
  .rodata            const    0x00050164     0x10  DbugUsartApp.o [1]
  .rodata            const    0x00050174     0x10  Journal.o [1]
  .rodata            const    0x00050184     0x10  Journal.o [1]
  .rodata            const    0x00050194     0x10  Keypad.o [1]
  .rodata            const    0x000501a4     0x10  Keypad.o [1]
  .rodata            const    0x000501b4     0x10  Keypad.o [1]
  .rodata            const    0x000501c4     0x10  PSAMCommand.o [1]
  .rodata            const    0x000501d4     0x10  PSAMCommand.o [1]
  .rodata            const    0x000501e4     0x10  PSAMCommand.o [1]
  .rodata            const    0x000501f4     0x10  PowerDown.o [1]
  .rodata            const    0x00050204     0x10  init.o [1]
  .rodata            const    0x00050214     0x10  init.o [1]
  .rodata            const    0x00050224     0x10  lcd.o [1]
  .rodata            const    0x00050234     0x10  lcd.o [1]
  .rodata            const    0x00050244     0x10  lcd.o [1]
  .rodata            const    0x00050254     0x10  print.o [1]
  .rodata            const    0x00050264     0x10  print.o [1]
  .rodata            const    0x00050274     0x10  print.o [1]
  .rodata            const    0x00050284     0x10  print.o [1]
  .rodata            const    0x00050294      0xc  CRMemCopy.o [1]
  .rodata            const    0x000502a0      0xc  CRMemCopy.o [1]
  .rodata            const    0x000502ac      0xc  CRMemCopy.o [1]
  .rodata            const    0x000502b8      0xc  CRMemCopy.o [1]
  .rodata            const    0x000502c4      0xc  CRMemCopy.o [1]
  .rodata            const    0x000502d0      0xc  CRPumpBusy.o [1]
  .rodata            const    0x000502dc      0xc  CRPumpBusy.o [1]
  .rodata            const    0x000502e8      0xc  CRPumpBusy.o [1]
  .rodata            const    0x000502f4      0xc  CRPumpCall.o [1]
  .rodata            const    0x00050300      0xc  CRPumpCall.o [1]
  .rodata            const    0x0005030c      0xc  CRSFunc.o [1]
  .rodata            const    0x00050318      0xc  DbugUsart.o [1]
  .rodata            const    0x00050324      0xc  DbugUsartApp.o [1]
  .rodata            const    0x00050330      0xc  DbugUsartApp.o [1]
  .rodata            const    0x0005033c      0xc  DbugUsartApp.o [1]
  .rodata            const    0x00050348      0xc  DbugUsartApp.o [1]
  .rodata            const    0x00050354      0xc  DbugUsartApp.o [1]
  .rodata            const    0x00050360      0xc  DbugUsartApp.o [1]
  .rodata            const    0x0005036c      0xc  DbugUsartApp.o [1]
  .rodata            const    0x00050378      0xc  DbugUsartApp.o [1]
  .rodata            const    0x00050384      0xc  DbugUsartApp.o [1]
  .rodata            const    0x00050390      0xc  DbugUsartApp.o [1]
  .rodata            const    0x0005039c      0xc  DbugUsartApp.o [1]
  .rodata            const    0x000503a8      0xc  DbugUsartApp.o [1]
  .rodata            const    0x000503b4      0xc  Display.o [1]
  .rodata            const    0x000503c0      0xc  Display.o [1]
  .rodata            const    0x000503cc      0xc  Display.o [1]
  .rodata            const    0x000503d8      0xc  Display.o [1]
  .rodata            const    0x000503e4      0xc  Display.o [1]
  .rodata            const    0x000503f0      0xc  Display.o [1]
  .rodata            const    0x000503fc      0xc  Display.o [1]
  .rodata            const    0x00050408      0xc  Display.o [1]
  .rodata            const    0x00050414      0xc  Display.o [1]
  .rodata            const    0x00050420      0xc  Display.o [1]
  .rodata            const    0x0005042c      0xc  Display.o [1]
  .rodata            const    0x00050438      0xc  Display.o [1]
  .rodata            const    0x00050444      0xc  Display.o [1]
  .rodata            const    0x00050450      0xc  Display.o [1]
  .rodata            const    0x0005045c      0xc  ICCardCommand.o [1]
  .rodata            const    0x00050468      0xc  ICCardCommand.o [1]
  .rodata            const    0x00050474      0xc  ICCardInProc.o [1]
  .rodata            const    0x00050480      0xc  ICCardInProc.o [1]
  .rodata            const    0x0005048c      0xc  Journal.o [1]
  .rodata            const    0x00050498      0xc  Keypad.o [1]
  .rodata            const    0x000504a4      0xc  Keypad.o [1]
  .rodata            const    0x000504b0      0xc  Keypad.o [1]
  .rodata            const    0x000504bc      0xc  Keypad.o [1]
  .rodata            const    0x000504c8      0xc  PosVar.o [1]
  .rodata            const    0x000504d4      0xc  SocialCard.o [1]
  .rodata            const    0x000504e0      0xc  at24.o [1]
  .rodata            const    0x000504ec      0xc  at24.o [1]
  .rodata            const    0x000504f8      0xc  at24.o [1]
  .rodata            const    0x00050504      0xc  at24.o [1]
  .rodata            const    0x00050510      0xc  at45.o [1]
  .rodata            const    0x0005051c      0xc  at45.o [1]
  .rodata            const    0x00050528      0xc  at45.o [1]
  .rodata            const    0x00050534      0xc  at45.o [1]
  .rodata            const    0x00050540      0xc  at45.o [1]
  .rodata            const    0x0005054c      0xc  at45.o [1]
  .rodata            const    0x00050558      0xc  at45.o [1]
  .rodata            const    0x00050564      0xc  at45.o [1]
  .rodata            const    0x00050570      0xc  at45.o [1]
  .rodata            const    0x0005057c      0xc  at45.o [1]
  .rodata            const    0x00050588      0xc  lcd.o [1]
  .rodata            const    0x00050594      0xc  lcd.o [1]
  .rodata            const    0x000505a0      0xc  lcd.o [1]
  .rodata            const    0x000505ac      0xc  print.o [1]
  .rodata            const    0x000505b8      0xc  print.o [1]
  .rodata            const    0x000505c4      0xc  print.o [1]
  .rodata            const    0x000505d0      0xc  print.o [1]
  .rodata            const    0x000505dc      0xc  print.o [1]
  .rodata            const    0x000505e8      0xc  print.o [1]
  .rodata            const    0x000505f4      0xc  print.o [1]
  .rodata            const    0x00050600      0xc  print.o [1]
  .rodata            const    0x0005060c      0xc  print.o [1]
  .rodata            const    0x00050618      0xc  print.o [1]
  .rodata            const    0x00050624      0xc  print.o [1]
  .rodata            const    0x00050630      0xc  print.o [1]
  .rodata            const    0x0005063c      0xc  print.o [1]
  .rodata            const    0x00050648      0xc  print.o [1]
  .rodata            const    0x00050654      0xc  print.o [1]
  .rodata            const    0x00050660      0xc  print.o [1]
  .rodata            const    0x0005066c      0xc  print.o [1]
  .rodata            const    0x00050678      0xc  print.o [1]
  .rodata            const    0x00050684      0xc  print.o [1]
  .rodata            const    0x00050690      0xc  print.o [1]
  .rodata            const    0x0005069c      0xc  print.o [1]
  .rodata            const    0x000506a8      0xc  print.o [1]
  .rodata            const    0x000506b4      0xc  print.o [1]
  .rodata            const    0x000506c0      0xc  print.o [1]
  .rodata            const    0x000506cc      0xc  print.o [1]
  .rodata            const    0x000506d8      0xc  print.o [1]
  .rodata            const    0x000506e4      0xc  print.o [1]
  .rodata            const    0x000506f0      0xc  print.o [1]
  .rodata            const    0x000506fc      0xc  print.o [1]
  .rodata            const    0x00050708      0xc  print.o [1]
  .rodata            const    0x00050714      0xc  print.o [1]
  .rodata            const    0x00050720      0xc  var.o [1]
  .rodata            const    0x0005072c      0xc  var.o [1]
  .rodata            const    0x00050738      0xc  var.o [1]
  .rodata            const    0x00050744      0xc  var.o [1]
  .rodata            const    0x00050750      0xc  var.o [1]
  .rodata            const    0x0005075c      0xc  var.o [1]
  .rodata            const    0x00050768      0xc  var.o [1]
  .rodata            const    0x00050774      0xc  var.o [1]
  .rodata            const    0x00050780      0xc  var.o [1]
  .rodata            const    0x0005078c      0xc  var.o [1]
  .rodata            const    0x00050798      0xc  var.o [1]
  .rodata            const    0x000507a4      0xc  var.o [1]
  .rodata            const    0x000507b0      0xc  var.o [1]
  .rodata            const    0x000507bc      0xc  var.o [1]
  .rodata            const    0x000507c8      0xc  var.o [1]
  .rodata            const    0x000507d4      0xc  var.o [1]
  .rodata            const    0x000507e0      0xc  var.o [1]
  .rodata            const    0x000507ec      0xc  var.o [1]
  .rodata            const    0x000507f8      0xc  var.o [1]
  .rodata            const    0x00050804      0xc  var.o [1]
  .rodata            const    0x00050810      0xc  var.o [1]
  .rodata            const    0x0005081c      0xc  var.o [1]
  .rodata            const    0x00050828      0xc  var.o [1]
  .rodata            const    0x00050834      0x8  AscLog.o [1]
  .rodata            const    0x0005083c      0x8  AscLog.o [1]
  .rodata            const    0x00050844      0x8  CRMemCopy.o [1]
  .rodata            const    0x0005084c      0x8  CRMemCopy.o [1]
  .rodata            const    0x00050854      0x8  CRMemCopy.o [1]
  .rodata            const    0x0005085c      0x8  CRMemCopy.o [1]
  .rodata            const    0x00050864      0x8  CRMemFunc.o [1]
  .rodata            const    0x0005086c      0x8  CRPumpBusy.o [1]
  .rodata            const    0x00050874      0x8  CRPumpCall.o [1]
  .rodata            const    0x0005087c      0x8  CRPumpCall.o [1]
  .rodata            const    0x00050884      0x8  CRPumpCall.o [1]
  .rodata            const    0x0005088c      0x8  CRPumpCall.o [1]
  .rodata            const    0x00050894      0x8  CRPumpCall.o [1]
  .rodata            const    0x0005089c      0x8  CRPumpCall.o [1]
  .rodata            const    0x000508a4      0x8  CRPumpCall.o [1]
  .rodata            const    0x000508ac      0x8  CRSFunc.o [1]
  .rodata            const    0x000508b4      0x8  CRSFunc.o [1]
  .rodata            const    0x000508bc      0x8  DbugUsartApp.o [1]
  .rodata            const    0x000508c4      0x8  DbugUsartApp.o [1]
  .rodata            const    0x000508cc      0x8  DbugUsartApp.o [1]
  .rodata            const    0x000508d4      0x8  DbugUsartApp.o [1]
  .rodata            const    0x000508dc      0x8  DbugUsartApp.o [1]
  .rodata            const    0x000508e4      0x8  DbugUsartApp.o [1]
  .rodata            const    0x000508ec      0x8  DbugUsartApp.o [1]
  .rodata            const    0x000508f4      0x8  DbugUsartApp.o [1]
  .rodata            const    0x000508fc      0x8  DbugUsartApp.o [1]
  .rodata            const    0x00050904      0x8  DbugUsartApp.o [1]
  .rodata            const    0x0005090c      0x8  DbugUsartApp.o [1]
  .rodata            const    0x00050914      0x8  DbugUsartApp.o [1]
  .rodata            const    0x0005091c      0x8  DbugUsartApp.o [1]
  .rodata            const    0x00050924      0x8  DbugUsartApp.o [1]
  .rodata            const    0x0005092c      0x8  DbugUsartApp.o [1]
  .rodata            const    0x00050934      0x8  DbugUsartApp.o [1]
  .rodata            const    0x0005093c      0x8  DbugUsartApp.o [1]
  .rodata            const    0x00050944      0x8  DbugUsartApp.o [1]
  .rodata            const    0x0005094c      0x8  DbugUsartApp.o [1]
  .rodata            const    0x00050954      0x8  DbugUsartApp.o [1]
  .rodata            const    0x0005095c      0x8  DbugUsartApp.o [1]
  .rodata            const    0x00050964      0x8  DbugUsartApp.o [1]
  .rodata            const    0x0005096c      0x8  DbugUsartApp.o [1]
  .rodata            const    0x00050974      0x8  DbugUsartApp.o [1]
  .rodata            const    0x0005097c      0x8  DbugUsartApp.o [1]
  .rodata            const    0x00050984      0x8  DbugUsartApp.o [1]
  .rodata            const    0x0005098c      0x8  DbugUsartApp.o [1]
  .rodata            const    0x00050994      0x8  DbugUsartApp.o [1]
  .rodata            const    0x0005099c      0x8  DbugUsartApp.o [1]
  .rodata            const    0x000509a4      0x8  Display.o [1]
  .rodata            const    0x000509ac      0x8  Display.o [1]
  .rodata            const    0x000509b4      0x8  Display.o [1]
  .rodata            const    0x000509bc      0x8  Display.o [1]
  .rodata            const    0x000509c4      0x8  Display.o [1]
  .rodata            const    0x000509cc      0x8  Display.o [1]
  .rodata            const    0x000509d4      0x8  Display.o [1]
  .rodata            const    0x000509dc      0x8  Display.o [1]
  .rodata            const    0x000509e4      0x8  ICCardCommand.o [1]
  .rodata            const    0x000509ec      0x8  ICCardCommand.o [1]
  .rodata            const    0x000509f4      0x8  ICCardInProc.o [1]
  .rodata            const    0x000509fc      0x8  ICCardInProc.o [1]
  .rodata            const    0x00050a04      0x8  ICCardInProc.o [1]
  .rodata            const    0x00050a0c      0x8  ICCardInProc2.o [1]
  .rodata            const    0x00050a14      0x8  ICCardInProc2.o [1]
  .rodata            const    0x00050a1c      0x8  ICCardInProc2.o [1]
  .rodata            const    0x00050a24      0x8  ICCardInProc2.o [1]
  .rodata            const    0x00050a2c      0x8  ICCardInProc2.o [1]
  .rodata            const    0x00050a34      0x8  ICCardInProc2.o [1]
  .rodata            const    0x00050a3c      0x8  Journal.o [1]
  .rodata            const    0x00050a44      0x8  Journal.o [1]
  .rodata            const    0x00050a4c      0x8  Journal.o [1]
  .rodata            const    0x00050a54      0x8  Keypad.o [1]
  .rodata            const    0x00050a5c      0x8  Keypad.o [1]
  .rodata            const    0x00050a64      0x8  Keypad2.o [1]
  .rodata            const    0x00050a6c      0x8  Keypad2.o [1]
  .rodata            const    0x00050a74      0x8  Keypad2.o [1]
  .rodata            const    0x00050a7c      0x8  Keypad2.o [1]
  .rodata            const    0x00050a84      0x8  PSAMCommand.o [1]
  .rodata            const    0x00050a8c      0x8  WriteLog.o [1]
  .rodata            const    0x00050a94      0x8  at24.o [1]
  .rodata            const    0x00050a9c      0x8  at24.o [1]
  .rodata            const    0x00050aa4      0x8  at24.o [1]
  .rodata            const    0x00050aac      0x8  at24.o [1]
  .rodata            const    0x00050ab4      0x8  at24.o [1]
  .rodata            const    0x00050abc      0x8  at24.o [1]
  .rodata            const    0x00050ac4      0x8  at24.o [1]
  .rodata            const    0x00050acc      0x8  control.o [1]
  .rodata            const    0x00050ad4      0x8  control.o [1]
  .rodata            const    0x00050adc      0x8  key.o [1]
  .rodata            const    0x00050ae4      0x8  key.o [1]
  .rodata            const    0x00050aec      0x8  lcd.o [1]
  .rodata            const    0x00050af4      0x8  lcd.o [1]
  .rodata            const    0x00050afc      0x8  lcd.o [1]
  .rodata            const    0x00050b04      0x8  lcd.o [1]
  .rodata            const    0x00050b0c      0x8  lcd.o [1]
  .rodata            const    0x00050b14      0x8  lcd.o [1]
  .rodata            const    0x00050b1c      0x8  lcd.o [1]
  .rodata            const    0x00050b24      0x8  lcd.o [1]
  .rodata            const    0x00050b2c      0x8  lcd.o [1]
  .rodata            const    0x00050b34      0x8  lcd.o [1]
  .rodata            const    0x00050b3c      0x8  lcd.o [1]
  .rodata            const    0x00050b44      0x8  lcd.o [1]
  .rodata            const    0x00050b4c      0x8  print.o [1]
  .rodata            const    0x00050b54      0x8  print.o [1]
  .rodata            const    0x00050b5c      0x8  print.o [1]
  .rodata            const    0x00050b64      0x8  print.o [1]
  .rodata            const    0x00050b6c      0x8  print.o [1]
  .rodata            const    0x00050b74      0x8  print.o [1]
  .rodata            const    0x00050b7c      0x8  print.o [1]
  .rodata            const    0x00050b84      0x8  print.o [1]
  .rodata            const    0x00050b8c      0x8  print.o [1]
  .rodata            const    0x00050b94      0x8  print.o [1]
  .rodata            const    0x00050b9c      0x8  print.o [1]
  .rodata            const    0x00050ba4      0x8  print.o [1]
  .rodata            const    0x00050bac      0x8  print.o [1]
  .rodata            const    0x00050bb4      0x8  print.o [1]
  .rodata            const    0x00050bbc      0x8  print.o [1]
  .rodata            const    0x00050bc4      0x4  CRVaribles.o [1]
  .rodata            const    0x00050bc8      0x4  DbugUsartApp.o [1]
  .rodata            const    0x00050bcc      0x4  DbugUsartApp.o [1]
  .rodata            const    0x00050bd0      0x4  DbugUsartApp.o [1]
  .rodata            const    0x00050bd4      0x4  Pump.o [1]
  .rodata            const    0x00050bd8      0x4  Pump.o [1]
  .rodata            const    0x00050bdc      0x4  print.o [1]
  .rodata            const    0x00050be0      0x4  print.o [1]
  .rodata            const    0x00050be4      0x4  print.o [1]
  .rodata            const    0x00050be8      0x4  print.o [1]
  .rodata            const    0x00050bec      0x4  print.o [1]
  .rodata            const    0x00050bf0      0x4  print.o [1]
  .rodata            const    0x00050bf4      0x4  print.o [1]
  .rodata            const    0x00050bf8      0x4  print.o [1]
  .rodata            const    0x00050bfc      0x4  print.o [1]
  .text              ro code  0x00050c00      0x4  xreturnswi.o [6]
  .rodata            const    0x00050c04      0x2  CRVaribles.o [1]
  .rodata            const    0x00050c06      0x2  CRVaribles.o [1]
  .rodata            const    0x00050c08      0x2  CRVaribles.o [1]
  .rodata            const    0x00050c0a      0x2  CRVaribles.o [1]
  .rodata            const    0x00050c0c      0x2  CRVaribles.o [1]
  .rodata            const    0x00050c0e      0x2  CRVaribles.o [1]
  .rodata            const    0x00050c10      0x2  CRVaribles.o [1]
  .rodata            const    0x00050c12      0x2  CRVaribles.o [1]
  .rodata            const    0x00050c14      0x2  CRVaribles.o [1]
  .rodata            const    0x00050c16      0x2  CRVaribles.o [1]
  .rodata            const    0x00050c18      0x2  CRVaribles.o [1]
  .rodata            const    0x00050c1a      0x2  CRVaribles.o [1]
  .rodata            const    0x00050c1c      0x2  DbugUsartApp.o [1]
  .rodata            const    0x00050c1e      0x2  DbugUsartApp.o [1]
  .rodata            const    0x00050c20      0x2  Keypad.o [1]
  .rodata            const    0x00050c22      0x2  Keypad.o [1]
  .rodata            const    0x00050c24      0x2  Keypad.o [1]
  .rodata            const    0x00050c26      0x2  init.o [1]
  .rodata            const    0x00050c28      0x2  print.o [1]
  .rodata            const    0x00050c2a      0x0  bwt_init3c.o [5]
  Initializer bytes  ro data  0x00050c2c     0x10  <for P2 s0>
                            - 0x00050c3c  0x50b3c

"P2", part 1 of 3:                           0x10
  P2 s0                       0x00200000     0x10  <Init block>
    .data            inited   0x00200000      0x4  DbugUsartApp.o [1]
    .data            inited   0x00200004      0x2  CRVaribles.o [1]
    .data            inited   0x00200006      0x2  var.o [1]
    .data            inited   0x00200008      0x1  CRCommand.o [1]
    .data            inited   0x00200009      0x1  CRCommand.o [1]
    .data            inited   0x0020000a      0x1  CRVaribles.o [1]
    .data            inited   0x0020000b      0x1  CRVaribles.o [1]
    .data            inited   0x0020000c      0x1  DbugUsartApp.o [1]
    .data            inited   0x0020000d      0x1  Pvar.o [1]
                            - 0x00200010     0x10

"P2", part 2 of 3:                         0x4fa0
  .bss               zero     0x00200010   0x1058  var.o [1]
  .bss               zero     0x00201068    0x800  print.o [1]
  .bss               zero     0x00201868    0x600  tc.o [1]
  .bss               zero     0x00201e68    0x480  var.o [1]
  .bss               zero     0x002022e8    0x400  DbugUsartApp.o [1]
  .bss               zero     0x002026e8    0x360  var.o [1]
  .bss               zero     0x00202a48    0x254  CRVaribles.o [1]
  .bss               zero     0x00202c9c    0x208  var.o [1]
  .bss               zero     0x00202ea4    0x200  DbugUsart.o [1]
  .bss               zero     0x002030a4    0x1e4  define.o [1]
  .bss               zero     0x00203288    0x1e4  list.o [1]
  .bss               zero     0x0020346c    0x1c8  var.o [1]
  .bss               zero     0x00203634    0x12c  var.o [1]
  .bss               zero     0x00203760    0x128  Pdprotect.o [1]
  .bss               zero     0x00203888    0x108  var.o [1]
  .bss               zero     0x00203990    0x100  CRVaribles.o [1]
  .bss               zero     0x00203a90    0x100  CRVaribles.o [1]
  .bss               zero     0x00203b90    0x100  CardDrive.o [1]
  .bss               zero     0x00203c90    0x100  PosVar.o [1]
  .bss               zero     0x00203d90    0x100  PosVar.o [1]
  .bss               zero     0x00203e90    0x100  var.o [1]
  .bss               zero     0x00203f90     0xf0  define.o [1]
  .bss               zero     0x00204080     0xd0  Pvar.o [1]
  .bss               zero     0x00204150     0xd0  Pvar.o [1]
  .bss               zero     0x00204220     0xd0  Pvar.o [1]
  .bss               zero     0x002042f0     0xa0  var.o [1]
  .bss               zero     0x00204390     0x84  define.o [1]
  .bss               zero     0x00204414     0x80  CRVaribles.o [1]
  .bss               zero     0x00204494     0x80  define.o [1]
  .bss               zero     0x00204514     0x64  define.o [1]
  .bss               zero     0x00204578     0x60  CRVaribles.o [1]
  .bss               zero     0x002045d8     0x60  Keypad.o [1]
  .bss               zero     0x00204638     0x60  PosVar.o [1]
  .bss               zero     0x00204698     0x60  define.o [1]
  .bss               zero     0x002046f8     0x60  tc.o [1]
  .bss               zero     0x00204758     0x50  var.o [1]
  .bss               zero     0x002047a8     0x50  var.o [1]
  .bss               zero     0x002047f8     0x48  define.o [1]
  .bss               zero     0x00204840     0x44  var.o [1]
  .bss               zero     0x00204884     0x40  var.o [1]
  .bss               zero     0x002048c4     0x40  var.o [1]
  .bss               zero     0x00204904     0x40  var.o [1]
  .bss               zero     0x00204944     0x34  CRVaribles.o [1]
  .bss               zero     0x00204978     0x34  CRVaribles.o [1]
  .bss               zero     0x002049ac     0x30  var.o [1]
  .bss               zero     0x002049dc     0x30  var.o [1]
  .bss               zero     0x00204a0c     0x2c  define.o [1]
  .bss               zero     0x00204a38     0x2c  define.o [1]
  .bss               zero     0x00204a64     0x2c  var.o [1]
  .bss               zero     0x00204a90     0x28  var.o [1]
  .bss               zero     0x00204ab8     0x1c  list.o [1]
  .bss               zero     0x00204ad4     0x1c  list.o [1]
  .bss               zero     0x00204af0     0x1c  list.o [1]
  .bss               zero     0x00204b0c     0x1c  list.o [1]
  .bss               zero     0x00204b28     0x1c  var.o [1]
  .bss               zero     0x00204b44     0x18  Screen.o [1]
  .bss               zero     0x00204b5c     0x18  Screen.o [1]
  .bss               zero     0x00204b74     0x18  Screen.o [1]
  .bss               zero     0x00204b8c     0x18  Screen.o [1]
  .bss               zero     0x00204ba4     0x18  Screen.o [1]
  .bss               zero     0x00204bbc     0x18  Screen.o [1]
  .bss               zero     0x00204bd4     0x18  Screen.o [1]
  .bss               zero     0x00204bec     0x18  Screen.o [1]
  .bss               zero     0x00204c04     0x18  Screen.o [1]
  .bss               zero     0x00204c1c     0x18  Screen.o [1]
  .bss               zero     0x00204c34     0x18  Screen.o [1]
  .bss               zero     0x00204c4c     0x18  Screen.o [1]
  .bss               zero     0x00204c64     0x18  Screen.o [1]
  .bss               zero     0x00204c7c     0x18  Screen.o [1]
  .bss               zero     0x00204c94     0x18  Screen.o [1]
  .bss               zero     0x00204cac     0x18  Screen.o [1]
  .bss               zero     0x00204cc4     0x18  Screen.o [1]
  .bss               zero     0x00204cdc     0x18  Screen.o [1]
  .bss               zero     0x00204cf4     0x18  Screen.o [1]
  .bss               zero     0x00204d0c     0x18  Screen.o [1]
  .bss               zero     0x00204d24     0x18  Screen.o [1]
  .bss               zero     0x00204d3c     0x18  Screen.o [1]
  .bss               zero     0x00204d54     0x18  define.o [1]
  .bss               zero     0x00204d6c     0x14  CRVaribles.o [1]
  .bss               zero     0x00204d80     0x14  define.o [1]
  .bss               zero     0x00204d94     0x14  var.o [1]
  .bss               zero     0x00204da8     0x14  var.o [1]
  .bss               zero     0x00204dbc     0x14  var.o [1]
  .bss               zero     0x00204dd0     0x10  KeyMask.o [1]
  .bss               zero     0x00204de0     0x10  var.o [1]
  .bss               zero     0x00204df0      0xc  define.o [1]
  .bss               zero     0x00204dfc      0xc  var.o [1]
  .bss               zero     0x00204e08      0x8  CardDrive.o [1]
  .bss               zero     0x00204e10      0x8  PosVar.o [1]
  .bss               zero     0x00204e18      0x8  Pvar.o [1]
  .bss               zero     0x00204e20      0x8  define.o [1]
  .bss               zero     0x00204e28      0x8  var.o [1]
  .bss               zero     0x00204e30      0x8  var.o [1]
  .bss               zero     0x00204e38      0x8  var.o [1]
  .bss               zero     0x00204e40      0x8  var.o [1]
  .bss               zero     0x00204e48      0x8  var.o [1]
  .bss               zero     0x00204e50      0x8  var.o [1]
  .bss               zero     0x00204e58      0x4  CRCommand.o [1]
  .bss               zero     0x00204e5c      0x4  CRCommand.o [1]
  .bss               zero     0x00204e60      0x4  CRVaribles.o [1]
  .bss               zero     0x00204e64      0x4  CRVaribles.o [1]
  .bss               zero     0x00204e68      0x4  CRVaribles.o [1]
  .bss               zero     0x00204e6c      0x4  CRVaribles.o [1]
  .bss               zero     0x00204e70      0x4  CRVaribles.o [1]
  .bss               zero     0x00204e74      0x4  CRVaribles.o [1]
  .bss               zero     0x00204e78      0x4  CRVaribles.o [1]
  .bss               zero     0x00204e7c      0x4  CRVaribles.o [1]
  .bss               zero     0x00204e80      0x4  CRVaribles.o [1]
  .bss               zero     0x00204e84      0x4  DbugUsart.o [1]
  .bss               zero     0x00204e88      0x4  DbugUsartApp.o [1]
  .bss               zero     0x00204e8c      0x4  DbugUsartApp.o [1]
  .bss               zero     0x00204e90      0x4  DbugUsartApp.o [1]
  .bss               zero     0x00204e94      0x4  DbugUsartApp.o [1]
  .bss               zero     0x00204e98      0x4  DbugUsartApp.o [1]
  .bss               zero     0x00204e9c      0x4  DbugUsartApp.o [1]
  .bss               zero     0x00204ea0      0x4  DbugUsartApp.o [1]
  .bss               zero     0x00204ea4      0x4  DbugUsartApp.o [1]
  .bss               zero     0x00204ea8      0x4  DbugUsartApp.o [1]
  .bss               zero     0x00204eac      0x4  DispPumpMsg.o [1]
  .bss               zero     0x00204eb0      0x4  DispPumpMsg.o [1]
  .bss               zero     0x00204eb4      0x4  Display.o [1]
  .bss               zero     0x00204eb8      0x4  Display.o [1]
  .bss               zero     0x00204ebc      0x4  Message.o [1]
  .bss               zero     0x00204ec0      0x4  PosVar.o [1]
  .bss               zero     0x00204ec4      0x4  PosVar.o [1]
  .bss               zero     0x00204ec8      0x4  PosVar.o [1]
  .bss               zero     0x00204ecc      0x4  PowerDown.o [1]
  .bss               zero     0x00204ed0      0x4  Pump.o [1]
  .bss               zero     0x00204ed4      0x4  Pump.o [1]
  .bss               zero     0x00204ed8      0x4  Pvar.o [1]
  .bss               zero     0x00204edc      0x4  Pvar.o [1]
  .bss               zero     0x00204ee0      0x4  Pvar.o [1]
  .bss               zero     0x00204ee4      0x4  Pvar.o [1]
  .bss               zero     0x00204ee8      0x4  Pvar.o [1]
  .bss               zero     0x00204eec      0x4  Pvar.o [1]
  .bss               zero     0x00204ef0      0x4  Pvar.o [1]
  .bss               zero     0x00204ef4      0x4  Pvar.o [1]
  .bss               zero     0x00204ef8      0x4  Pvar.o [1]
  .bss               zero     0x00204efc      0x4  Screen.o [1]
  .bss               zero     0x00204f00      0x4  define.o [1]
  .bss               zero     0x00204f04      0x4  list.o [1]
  .bss               zero     0x00204f08      0x4  var.o [1]
  .bss               zero     0x00204f0c      0x4  var.o [1]
  .bss               zero     0x00204f10      0x4  var.o [1]
  .bss               zero     0x00204f14      0x4  var.o [1]
  .bss               zero     0x00204f18      0x4  var.o [1]
  .bss               zero     0x00204f1c      0x4  var.o [1]
  .bss               zero     0x00204f20      0x4  var.o [1]
  .bss               zero     0x00204f24      0x4  var.o [1]
  __DLIB_PERTHREAD   zero     0x00204f28      0x4  errno.o [3]
  .bss               zero     0x00204f2c      0x2  DbugUsartApp.o [1]
  .bss               zero     0x00204f2e      0x2  Message.o [1]
  .bss               zero     0x00204f30      0x2  Message.o [1]
  .bss               zero     0x00204f32      0x2  Pcomm.o [1]
  .bss               zero     0x00204f34      0x2  Pcomm.o [1]
  .bss               zero     0x00204f36      0x2  PosVar.o [1]
  .bss               zero     0x00204f38      0x2  PosVar.o [1]
  .bss               zero     0x00204f3a      0x2  PosVar.o [1]
  .bss               zero     0x00204f3c      0x2  PosVar.o [1]
  .bss               zero     0x00204f3e      0x2  Pump.o [1]
  .bss               zero     0x00204f40      0x2  Pvar.o [1]
  .bss               zero     0x00204f42      0x2  define.o [1]
  .bss               zero     0x00204f44      0x1  AscLog.o [1]
  .bss               zero     0x00204f45      0x1  CRCommand.o [1]
  .bss               zero     0x00204f46      0x1  CRPumpBusy.o [1]
  .bss               zero     0x00204f47      0x1  CRVaribles.o [1]
  .bss               zero     0x00204f48      0x1  CRVaribles.o [1]
  .bss               zero     0x00204f49      0x1  CRVaribles.o [1]
  .bss               zero     0x00204f4a      0x1  CRVaribles.o [1]
  .bss               zero     0x00204f4b      0x1  CRVaribles.o [1]
  .bss               zero     0x00204f4c      0x1  CRVaribles.o [1]
  .bss               zero     0x00204f4d      0x1  CRVaribles.o [1]
  .bss               zero     0x00204f4e      0x1  CRVaribles.o [1]
  .bss               zero     0x00204f4f      0x1  CRVaribles.o [1]
  .bss               zero     0x00204f50      0x1  CRVaribles.o [1]
  .bss               zero     0x00204f51      0x1  CRVaribles.o [1]
  .bss               zero     0x00204f52      0x1  CRVaribles.o [1]
  .bss               zero     0x00204f53      0x1  CRVaribles.o [1]
  .bss               zero     0x00204f54      0x1  CRVaribles.o [1]
  .bss               zero     0x00204f55      0x1  CRVaribles.o [1]
  .bss               zero     0x00204f56      0x1  CRVaribles.o [1]
  .bss               zero     0x00204f57      0x1  CRVaribles.o [1]
  .bss               zero     0x00204f58      0x1  CRVaribles.o [1]
  .bss               zero     0x00204f59      0x1  CRVaribles.o [1]
  .bss               zero     0x00204f5a      0x1  CRVaribles.o [1]
  .bss               zero     0x00204f5b      0x1  CRVaribles.o [1]
  .bss               zero     0x00204f5c      0x1  CRVaribles.o [1]
  .bss               zero     0x00204f5d      0x1  CRVaribles.o [1]
  .bss               zero     0x00204f5e      0x1  CRVaribles.o [1]
  .bss               zero     0x00204f5f      0x1  CRVaribles.o [1]
  .bss               zero     0x00204f60      0x1  CardDrive.o [1]
  .bss               zero     0x00204f61      0x1  CardDrive.o [1]
  .bss               zero     0x00204f62      0x1  CardDrive.o [1]
  .bss               zero     0x00204f63      0x1  CardDrive.o [1]
  .bss               zero     0x00204f64      0x1  DbugUsartApp.o [1]
  .bss               zero     0x00204f65      0x1  DbugUsartApp.o [1]
  .bss               zero     0x00204f66      0x1  DbugUsartApp.o [1]
  .bss               zero     0x00204f67      0x1  DbugUsartApp.o [1]
  .bss               zero     0x00204f68      0x1  DbugUsartApp.o [1]
  .bss               zero     0x00204f69      0x1  DbugUsartApp.o [1]
  .bss               zero     0x00204f6a      0x1  Display.o [1]
  .bss               zero     0x00204f6b      0x1  ICCardCommand.o [1]
  .bss               zero     0x00204f6c      0x1  ICCardInProc.o [1]
  .bss               zero     0x00204f6d      0x1  ICCardInProc.o [1]
  .bss               zero     0x00204f6e      0x1  KeyMask.o [1]
  .bss               zero     0x00204f6f      0x1  KeyMask.o [1]
  .bss               zero     0x00204f70      0x1  KeyMask.o [1]
  .bss               zero     0x00204f71      0x1  KeyMask.o [1]
  .bss               zero     0x00204f72      0x1  KeyMask.o [1]
  .bss               zero     0x00204f73      0x1  Keypad.o [1]
  .bss               zero     0x00204f74      0x1  Pcomm.o [1]
  .bss               zero     0x00204f75      0x1  Pcomm.o [1]
  .bss               zero     0x00204f76      0x1  PosVar.o [1]
  .bss               zero     0x00204f77      0x1  PosVar.o [1]
  .bss               zero     0x00204f78      0x1  PosVar.o [1]
  .bss               zero     0x00204f79      0x1  PosVar.o [1]
  .bss               zero     0x00204f7a      0x1  PosVar.o [1]
  .bss               zero     0x00204f7b      0x1  PosVar.o [1]
  .bss               zero     0x00204f7c      0x1  PosVar.o [1]
  .bss               zero     0x00204f7d      0x1  PowerDown.o [1]
  .bss               zero     0x00204f7e      0x1  PowerDown.o [1]
  .bss               zero     0x00204f7f      0x1  Pump.o [1]
  .bss               zero     0x00204f80      0x1  Pump.o [1]
  .bss               zero     0x00204f81      0x1  Pvar.o [1]
  .bss               zero     0x00204f82      0x1  Pvar.o [1]
  .bss               zero     0x00204f83      0x1  Pvar.o [1]
  .bss               zero     0x00204f84      0x1  Pvar.o [1]
  .bss               zero     0x00204f85      0x1  Pvar.o [1]
  .bss               zero     0x00204f86      0x1  Pvar.o [1]
  .bss               zero     0x00204f87      0x1  Pvar.o [1]
  .bss               zero     0x00204f88      0x1  Pvar.o [1]
  .bss               zero     0x00204f89      0x1  Pvar.o [1]
  .bss               zero     0x00204f8a      0x1  Pvar.o [1]
  .bss               zero     0x00204f8b      0x1  Pvar.o [1]
  .bss               zero     0x00204f8c      0x1  Pvar.o [1]
  .bss               zero     0x00204f8d      0x1  Pvar.o [1]
  .bss               zero     0x00204f8e      0x1  Pvar.o [1]
  .bss               zero     0x00204f8f      0x1  Pvar.o [1]
  .bss               zero     0x00204f90      0x1  Pvar.o [1]
  .bss               zero     0x00204f91      0x1  Screen.o [1]
  .bss               zero     0x00204f92      0x1  Screen.o [1]
  .bss               zero     0x00204f93      0x1  Screen.o [1]
  .bss               zero     0x00204f94      0x1  Screen.o [1]
  .bss               zero     0x00204f95      0x1  Screen.o [1]
  .bss               zero     0x00204f96      0x1  SocialCard.o [1]
  .bss               zero     0x00204f97      0x1  SocialCard.o [1]
  .bss               zero     0x00204f98      0x1  control.o [1]
  .bss               zero     0x00204f99      0x1  define.o [1]
  .bss               zero     0x00204f9a      0x1  list.o [1]
  .bss               zero     0x00204f9b      0x1  list.o [1]
  .bss               zero     0x00204f9c      0x1  tools.o [1]
  .bss               zero     0x00204f9d      0x1  var.o [1]
  .bss               zero     0x00204f9e      0x1  var.o [1]
  .bss               zero     0x00204f9f      0x1  var.o [1]
  .bss               zero     0x00204fa0      0x1  var.o [1]
  .bss               zero     0x00204fa1      0x1  var.o [1]
  .bss               zero     0x00204fa2      0x1  var.o [1]
  .bss               zero     0x00204fa3      0x1  var.o [1]
  .bss               zero     0x00204fa4      0x1  var.o [1]
  .bss               zero     0x00204fa5      0x1  var.o [1]
  .bss               zero     0x00204fa6      0x1  var.o [1]
  .bss               zero     0x00204fa7      0x1  var.o [1]
  .bss               zero     0x00204fa8      0x1  var.o [1]
  .bss               zero     0x00204fa9      0x1  var.o [1]
  .bss               zero     0x00204faa      0x1  var.o [1]
  .bss               zero     0x00204fab      0x1  var.o [1]
  .bss               zero     0x00204fac      0x1  var.o [1]
                            - 0x00204fad   0x4f9d

"P2", part 3 of 3:                         0x18c8
  CSTACK                      0x00204fb0   0x1000  <Block>
    CSTACK           uninit   0x00204fb0   0x1000  <Block tail>
  SVC_STACK                   0x00205fb0    0x400  <Block>
    SVC_STACK        uninit   0x00205fb0    0x400  <Block tail>
  IRQ_STACK                   0x002063b0    0x400  <Block>
    IRQ_STACK        uninit   0x002063b0    0x400  <Block tail>
  FIQ_STACK                   0x002067b0     0x40  <Block>
    FIQ_STACK        uninit   0x002067b0     0x40  <Block tail>
  UND_STACK                   0x002067f0     0x40  <Block>
    UND_STACK        uninit   0x002067f0     0x40  <Block tail>
  ABT_STACK                   0x00206830     0x40  <Block>
    ABT_STACK        uninit   0x00206830     0x40  <Block tail>
  .noinit            uninit   0x00206870      0x4  var.o [1]
  .noinit            uninit   0x00206874      0x4  var.o [1]
                            - 0x00206878   0x18c8


*******************************************************************************
*** INIT TABLE
***

          Address     Size
          -------     ----
Zero (__iar_zero_init3)
    1 destination range, total size 0x4f9d:
          0x00200010  0x4f9d

Copy (__iar_copy_init3)
    1 source range, total size 0x10 (114% of destination):
          0x00050c2c    0x10
    1 destination range, total size 0xe:
          0x00200000     0xe


*******************************************************************************
*** MODULE SUMMARY
***

    Module               ro code  ro data  rw data
    ------               -------  -------  -------
D:\Gpay01\Gpay010511\Debug\Obj: [1]
    Arm70_POS_funtion.o    9 204
    AscLog.o               6 888      260        1
    CRCommand.o            3 864        2       11
    CRMemCopy.o            2 828      108
    CRMemFunc.o            1 524        8
    CRPowerOn.o            2 056
    CRPrint.o              1 628
    CRPumpBusy.o           5 288      136        1
    CRPumpCall.o           8 312       80
    CRPumpEOT.o            2 048       80
    CRSFunc.o              6 116       88
    CRVaribles.o                       32    1 521
    CardDrive.o           11 428       16      268
    CardReader.o           1 492
    CardReady.o              164
    Cstartup.o               416
    Cstartup_SAM7.o          328
    DbugUsart.o              212       28      516
    DbugUsartApp.o        18 856      945    1 073
    DispPumpMsg.o            924                 8
    Display.o              8 644      332        9
    ExCRProc.o             2 612
    GreyCard.o             2 256
    ICCardCommand.o        9 676       40        1
    ICCardInProc.o         9 856       48        2
    ICCardInProc2.o        3 968       48
    ICCardProc.o           1 424
    Journal.o              6 932       88
    KeyMask.o                          56       21
    Keypad.o              26 704      822       97
    Keypad2.o             12 864       32
    KeypadMain.o           2 036
    Message.o                256    9 360        8
    POS.o                    768
    PSAMCommand.o          6 228       56
    PSAMProc.o               736
    Pcomm.o                2 944                 6
    Pdprotect.o                                296
    Pinit.o                  332
    PosVar.o               2 696       12      643
    PowerDown.o              628       76        6
    Pump.o                13 868        8       12
    Pvar.o                              1      687
    Schedule.o               356
    Screen.o                        3 864      537
    SocialCard.o           1 320       36        2
    Verify.o                 332
    Voice.o                1 448
    WriteLog.o               456        8
    at24.o                 1 744      280
    at45.o                 2 076      320
    at83.o                 6 968
    at83c26_app.o          5 612
    control.o              2 888       16        1
    define.o                                 1 411
    f_irq.o                1 996
    init.o                 5 904       34
    key.o                    692       44
    lcd.o                 10 980      772
    list.o                29 244      144      602
    m1172.o                3 620
    main.o                   176
    memoryCheck.o            124
    print.o               14 424    1 026    2 048
    record.o               3 472
    spi.o                    552
    tc.o                   1 436             1 632
    tools.o                3 652                 1
    twi.o                     24
    usart.o                  916
    var.o                             566    8 978
    ----------------------------------------------
    Total:               299 416   19 872   20 399

command line: [2]
    ----------------------------------------------
    Total:

dl4t_aln.a: [3]
    div.o                     56
    errno.o                   12                 4
    exit.o                    12
    low_level_init.o           8
    sprintf.o                 92
    vsprintf.o                76
    xprintffull.o          5 622
    xsprout.o                 20
    xstoul.o                 540
    xtls.o                     4
    ----------------------------------------------
    Total:                 6 442                 4

m4t_al.a: [4]
    DblAdd.o                 320
    DblCmpGe.o                56
    DblCmpLe.o                56
    DblDiv.o                 824
    DblMul.o                 504
    DblSub.o                 496
    DblToS32.o                96
    DblToU32.o                60
    S32ToDbl.o                96
    U32ToDbl.o                16
    xdnorm.o                 124
    xdscale.o                456
    ----------------------------------------------
    Total:                 3 104

rt4t_al.a: [5]
    ABImemcpy.o              212
    ABImemset.o              124
    I32DivMod.o              468
    I64DivMod.o              296
    I64DivZer.o                4
    IntDivZer.o                4
    bwt_init3c.o
    cexit.o                   16
    cmain.o                   36
    copy_init3.o              46
    data_init3.o              84
    memchr.o                 148
    memcmp.o                 116
    strchr.o                  32
    strlen.o                  84
    zero_init3.o              40
    ----------------------------------------------
    Total:                 1 710

shs_l.a: [6]
    exit.o                    32
    xreturnswi.o               4
    ----------------------------------------------
    Total:                    36

    Gaps                                         2
    Linker created                     40    6 336
--------------------------------------------------
    Grand Total:         310 708   19 912   26 741


*******************************************************************************
*** ENTRY LIST
***

Entry                      Address    Size  Type      Object
-----                      -------    ----  ----      ------
?main                   0x0004f9c8          Code  Gb  cmain.o [5]
ABLLink                 0x00204884    0x40  Data  Gb  var.o [1]
ABT_STACK$$Base         0x00206830           --   Gb  - Linker created -
ABT_STACK$$Limit        0x00206870           --   Gb  - Linker created -
AIC_ClearIT             0x0000e07c    0x18  Code  Gb  tools.o [1]
AIC_ConfigureIT         0x0000e034    0x48  Code  Gb  usart.o [1]
AIC_DisableIT           0x00009248    0x18  Code  Gb  tools.o [1]
AIC_EnableIT            0x0000e094    0x18  Code  Gb  usart.o [1]
AMN                     0x0005092c     0x8  Data  Lc  DbugUsartApp.o [1]
ANSWER_TRANSMIT         0x00036530    0x40  Code  Gb  Pump.o [1]
ANSWER_TRANSMIT_ERR     0x00036570    0x40  Code  Gb  Pump.o [1]
ARMVerifyData           0x00050bd4     0x4  Data  Lc  Pump.o [1]
ASC2BCD_F               0x00025618    0xf8  Code  Gb  Keypad2.o [1]
ASN                     0x0005091c     0x8  Data  Lc  DbugUsartApp.o [1]
AT24_IsBusy             0x0000bd3c    0x18  Code  Gb  at24.o [1]
AT45_Configure          0x00007560    0x5c  Code  Gb  at45.o [1]
AT45_ERROR0             0x00050224    0x10  Data  Lc  lcd.o [1]
AT45_ERROR1             0x00050234    0x10  Data  Lc  lcd.o [1]
AT45_ErasePage          0x000077bc    0x7c  Code  Gb  at45.o [1]
AT45_FindDevice         0x00007700    0x84  Code  Gb  at45.o [1]
AT45_GetStatus          0x000078e4    0x60  Code  Gb  at45.o [1]
AT45_IsBusy             0x000076e8    0x18  Code  Gb  at45.o [1]
AT45_PageWriteBuf1      0x00007838    0xac  Code  Gb  at45.o [1]
AT45_Read               0x00007944    0x80  Code  Gb  at45.o [1]
AT45_SendCommand        0x000075bc   0x12c  Code  Gb  at45.o [1]
AT45_WaitReady          0x00007788    0x34  Code  Gb  at45.o [1]
AT45_Write              0x000079c4   0x3b8  Code  Gb  at45.o [1]
AT83_IsBusy             0x0001e160    0x18  Code  Gb  at83.o [1]
AT91F_Default_FIQ_handler
                        0x0004edd8          Code  Gb  Cstartup.o [1]
AT91F_Default_IRQ_handler
                        0x0004eddc          Code  Gb  Cstartup.o [1]
AT91F_LowLevelInit      0x0004f178   0x148  Code  Gb  Cstartup_SAM7.o [1]
AT91F_RSTGetStatus      0x000139e8     0x8  Code  Gb  init.o [1]
AT91F_Spurious_handler  0x0004ede0          Code  Gb  Cstartup.o [1]
AT91F_WDTRestart        0x0000d45c    0x10  Code  Gb  tools.o [1]
AddBlackListHead        0x00204ad4    0x1c  Data  Lc  list.o [1]
AddFA                   0x000083c8    0xf0  Code  Gb  tools.o [1]
AddPrintTask            0x0001d2fc    0xb0  Code  Gb  print.o [1]
AdjustSystime           0x00008184   0x244  Code  Gb  tools.o [1]
AidType                 0x00204f97     0x1  Data  Gb  SocialCard.o [1]
AnewInitUsart1          0x000145dc    0xdc  Code  Gb  CardDrive.o [1]
AnswerPOLL              0x000374fc    0x70  Code  Gb  Pump.o [1]
AppTimeFlg              0x00204f60     0x1  Data  Lc  CardDrive.o [1]
AppTimeOut              0x00014554    0x64  Code  Gb  CardDrive.o [1]
Arm70_POS_main          0x0004e5a4   0x29c  Code  Gb  POS.o [1]
Arm_g_posbuff           0x00203c90   0x100  Data  Gb  PosVar.o [1]
Asc2Hex                 0x0001e760   0x114  Code  Gb  CRMemCopy.o [1]
AscLog                  0x00009290   0x300  Code  Gb  AscLog.o [1]
At83C26Check            0x00014500    0x54  Code  Gb  CardDrive.o [1]
At83TimeOut             0x000166c4    0x10  Code  Gb  at83c26_app.o [1]
At83Ver                 0x00050104    0x10  Data  Gb  CardDrive.o [1]
At83c26Back             0x000155ac   0x2f0  Code  Gb  CardDrive.o [1]
BAL                     0x00050924     0x8  Data  Lc  DbugUsartApp.o [1]
BBLLink                 0x00200010  0x1058  Data  Gb  var.o [1]
BalScreenKeepTimer      0x00204e6c     0x4  Data  Gb  CRVaribles.o [1]
BaseBlackListHead       0x00204ab8    0x1c  Data  Lc  list.o [1]
BcdToAscii              0x00019ca8    0xa4  Code  Gb  print.o [1]
BeepClose               0x0000d5f4    0x20  Code  Gb  control.o [1]
BeepClose1              0x0000d614    0x20  Code  Gb  control.o [1]
BeepControl             0x0000d644    0x30  Code  Gb  control.o [1]
BeepControl2            0x0000d674    0x30  Code  Gb  control.o [1]
BeepDelay               0x0000d6a4    0x2c  Code  Gb  control.o [1]
BeepFlg                 0x00204f9f     0x1  Data  Gb  var.o [1]
BeepOpen                0x0000d5e0    0x14  Code  Gb  control.o [1]
BuildAddBlackListLink   0x00003a0c   0x1e4  Code  Gb  list.o [1]
BuildBaseBlackListLink  0x0000381c   0x1ec  Code  Gb  list.o [1]
BuildDelBlackListLink   0x00003c08   0x1e4  Code  Gb  list.o [1]
BuildListLink           0x00002b28   0x130  Code  Gb  list.o [1]
BuildWhiteListLink      0x00003dec   0x1e4  Code  Gb  list.o [1]
CHARAC_LIB_ERR          0x00050244    0x10  Data  Lc  lcd.o [1]
CRCardCommErrTimes      0x00204f4a     0x1  Data  Gb  CRVaribles.o [1]
CRLogTxt                0x00204944    0x34  Data  Gb  CRVaribles.o [1]
CRPowerFlag             0x00204f4e     0x1  Data  Gb  CRVaribles.o [1]
CRPowerOn_Proc          0x0004bb7c   0x414  Code  Gb  CRPowerOn.o [1]
CRSpringCardLog         0x0001e878   0x35c  Code  Gb  CRMemCopy.o [1]
CRStepLog               0x00204978    0x34  Data  Gb  CRVaribles.o [1]
CRType                  0x0020000a     0x1  Data  Gb  CRVaribles.o [1]
CRVoiceBusyFlag         0x00204f5a     0x1  Data  Gb  CRVaribles.o [1]
CR_ACKTimeOut           0x00021ccc    0x10  Code  Gb  CRCommand.o [1]
CR_BlackLists_Local     0x0003b248   0x2c8  Code  Gb  ICCardInProc2.o [1]
CR_BlackLists_POS       0x0003b510   0x114  Code  Gb  ICCardInProc2.o [1]
CR_CAPDU_Command_T0_ICCard
                        0x000207bc   0x3d4  Code  Gb  ICCardCommand.o [1]
CR_CAPDU_Command_T0_PSAM
                        0x00044ee8   0x2bc  Code  Gb  PSAMCommand.o [1]
CR_CARDPOWEROFF         0x00050c0c     0x2  Data  Gb  CRVaribles.o [1]
CR_CARDPOWERON          0x00050c0a     0x2  Data  Gb  CRVaribles.o [1]
CR_CARD_STATE           0x00050c06     0x2  Data  Gb  CRVaribles.o [1]
CR_Calc_BCC             0x00021cec    0x34  Code  Gb  CRCommand.o [1]
CR_CardReaderCheckCard  0x000224e0    0x98  Code  Gb  CRCommand.o [1]
CR_CardReaderPowerOffCard
                        0x000226cc    0x78  Code  Gb  CRCommand.o [1]
CR_CardReaderPowerOnCard
                        0x000226a4    0x28  Code  Gb  CRCommand.o [1]
CR_CardReaderReset      0x00022118   0x1cc  Code  Gb  CRCommand.o [1]
CR_CardReaderSpringOutCard
                        0x00022578   0x12c  Code  Gb  CRCommand.o [1]
CR_Check_Black_List     0x0003b624   0x118  Code  Gb  ICCardInProc2.o [1]
CR_Check_Err            0x0004d5d0   0x108  Code  Gb  CardReader.o [1]
CR_Check_Grey_Record    0x0004add0   0x298  Code  Gb  GreyCard.o [1]
CR_Check_White_List     0x0003b0cc   0x17c  Code  Gb  ICCardInProc2.o [1]
CR_Command              0x00021d20    0x40  Code  Gb  CRCommand.o [1]
CR_CommandStatus        0x00204f56     0x1  Data  Gb  CRVaribles.o [1]
CR_CommandType          0x00204f54     0x1  Data  Gb  CRVaribles.o [1]
CR_Command_232          0x00021ecc   0x24c  Code  Gb  CRCommand.o [1]
CR_Command_ACK_TimeOut  0x00204e74     0x4  Data  Gb  CRVaribles.o [1]
CR_Command_CR           0x000222e4   0x1fc  Code  Gb  CRCommand.o [1]
CR_Command_Response_TimeOut
                        0x00204e78     0x4  Data  Gb  CRVaribles.o [1]
CR_Command_TWI          0x00021d60   0x16c  Code  Gb  CRCommand.o [1]
CR_DESELECT             0x00050c12     0x2  Data  Gb  CRVaribles.o [1]
CR_GET_CARDTYPE         0x00050c16     0x2  Data  Gb  CRVaribles.o [1]
CR_GetGreyResponse      0x0004b068   0x1a4  Code  Gb  GreyCard.o [1]
CR_GetGreyResponse_Local
                        0x0004b20c    0x8c  Code  Gb  GreyCard.o [1]
CR_GetLastTrans         0x000477b0   0x1a4  Code  Gb  CRPumpBusy.o [1]
CR_ICCARD_Clear_Lock_Proof
                        0x00021074    0x2c  Code  Gb  ICCardCommand.o [1]
CR_ICCARD_Debit_Grey_Unlock
                        0x00021224    0x80  Code  Gb  ICCardCommand.o [1]
CR_ICCARD_Get_Balance   0x000210a4    0x80  Code  Gb  ICCardCommand.o [1]
CR_ICCARD_Get_Lock_Proof
                        0x00020ff4    0x80  Code  Gb  ICCardCommand.o [1]
CR_ICCARD_Init_Grey_Lock
                        0x00021124    0x80  Code  Gb  ICCardCommand.o [1]
CR_ICCARD_Read_FID_0x15
                        0x00020cbc    0x64  Code  Gb  ICCardCommand.o [1]
CR_ICCARD_Read_Record   0x00020f40    0x80  Code  Gb  ICCardCommand.o [1]
CR_ICCARD_Read_SFI_0x15
                        0x00020d24    0x80  Code  Gb  ICCardCommand.o [1]
CR_ICCARD_Read_SFI_0x16
                        0x00020da4    0x80  Code  Gb  ICCardCommand.o [1]
CR_ICCARD_Read_SFI_0x1B
                        0x00020e30    0x80  Code  Gb  ICCardCommand.o [1]
CR_ICCARD_Read_SFI_0x1C
                        0x00020eb8    0x80  Code  Gb  ICCardCommand.o [1]
CR_ICCARD_Select_Loyalty_APP
                        0x00020bf8    0x64  Code  Gb  ICCardCommand.o [1]
CR_ICCARD_Select_Saveoil_APP
                        0x00020c5c    0x60  Code  Gb  ICCardCommand.o [1]
CR_ICCARD_Select_Sinopec_APP
                        0x00020b94    0x64  Code  Gb  ICCardCommand.o [1]
CR_ICCARD_Select_Social_APP
                        0x0001f0a4    0x64  Code  Gb  SocialCard.o [1]
CR_ICCARD_Set_Grey_Lock
                        0x000211a4    0x80  Code  Gb  ICCardCommand.o [1]
CR_ICCARD_Verify_PIN    0x00020fc0    0x2c  Code  Gb  ICCardCommand.o [1]
CR_IC_ColdReset_7816    0x0001f4f8   0x244  Code  Gb  ICCardCommand.o [1]
CR_ID                   0x00204f8d     0x1  Data  Gb  Pvar.o [1]
CR_Last_CommandType     0x00204f55     0x1  Data  Gb  CRVaribles.o [1]
CR_MACType              0x00204f57     0x1  Data  Gb  CRVaribles.o [1]
CR_MAC_CommandType      0x00204f58     0x1  Data  Gb  CRVaribles.o [1]
CR_OfflineTrans_Or_Not  0x0004839c   0x2bc  Code  Gb  CRPumpBusy.o [1]
CR_POLL_TYPE_A          0x00050c0e     0x2  Data  Gb  CRVaribles.o [1]
CR_POLL_TYPE_B          0x00050c10     0x2  Data  Gb  CRVaribles.o [1]
CR_PSAM1_ColdReset_7816_50V
                        0x00044ebc    0x2c  Code  Gb  PSAMCommand.o [1]
CR_PSAM_Certificate_Grey_Lock
                        0x000454b4    0x38  Code  Gb  PSAMCommand.o [1]
CR_PSAM_ColdReset       0x00044c4c   0x258  Code  Gb  PSAMCommand.o [1]
CR_PSAM_Credit_Grey_Debit
                        0x000454ec    0x70  Code  Gb  PSAMCommand.o [1]
CR_PSAM_DES_Encrypt0    0x00045608    0x38  Code  Gb  PSAMCommand.o [1]
CR_PSAM_DES_Encrypt1    0x00045644    0x38  Code  Gb  PSAMCommand.o [1]
CR_PSAM_DES_Encrypt2    0x0004567c    0x38  Code  Gb  PSAMCommand.o [1]
CR_PSAM_Get_GMAC        0x0004555c    0x70  Code  Gb  PSAMCommand.o [1]
CR_PSAM_Init_DES_Encrypt
                        0x000455d0    0x38  Code  Gb  PSAMCommand.o [1]
CR_PSAM_Init_Grey_Lock  0x00045444    0x70  Code  Gb  PSAMCommand.o [1]
CR_PSAM_Select_PSE      0x000451a4   0x12c  Code  Gb  PSAMCommand.o [1]
CR_PSAM_Select_Sinopec1
                        0x000452d4   0x12c  Code  Gb  PSAMCommand.o [1]
CR_PSAM_Select_Sinopec2
                        0x00045400    0x44  Code  Gb  PSAMCommand.o [1]
CR_Poll_CardType        0x00021760   0x2e8  Code  Gb  ICCardCommand.o [1]
CR_Poll_TypeA           0x000212d4   0x238  Code  Gb  ICCardCommand.o [1]
CR_Poll_TypeB           0x00021510   0x238  Code  Gb  ICCardCommand.o [1]
CR_PowerDown            0x0004d370   0x260  Code  Gb  CardReader.o [1]
CR_Proc_Last_Step       0x00204f53     0x1  Data  Gb  CRVaribles.o [1]
CR_Proc_MAC_Step        0x00204f59     0x1  Data  Gb  CRVaribles.o [1]
CR_Proc_Step            0x00204f52     0x1  Data  Gb  CRVaribles.o [1]
CR_RESET_CR             0x00050c04     0x2  Data  Gb  CRVaribles.o [1]
CR_ResponseTimeOut      0x00021cdc    0x10  Code  Gb  CRCommand.o [1]
CR_SPRING_CARD          0x00050c08     0x2  Data  Gb  CRVaribles.o [1]
CR_Task_Flag            0x00204e70     0x4  Data  Gb  CRVaribles.o [1]
CRow1                   0x00050284    0x10  Data  Lc  print.o [1]
CRow4                   0x00050b7c     0x8  Data  Lc  print.o [1]
CRow5                   0x000506cc     0xc  Data  Lc  print.o [1]
CRow6                   0x0004f7d8    0x64  Data  Lc  print.o [1]
CRow7                   0x0004fcd0    0x1c  Data  Lc  print.o [1]
CRstate                 0x00204f85     0x1  Data  Gb  Pvar.o [1]
CSTACK$$Base            0x00204fb0           --   Gb  - Linker created -
CSTACK$$Limit           0x00205fb0           --   Gb  - Linker created -
CTC                     0x00050934     0x8  Data  Lc  DbugUsartApp.o [1]
C_GCODE                 0x00050708     0xc  Data  Lc  print.o [1]
C_TYPE                  0x00050954     0x8  Data  Lc  DbugUsartApp.o [1]
CalcCRC16               0x0001e378    0xa8  Code  Gb  CRMemCopy.o [1]
CalcFuelling            0x00042e54    0x94  Code  Gb  CRPumpCall.o [1]
CalculateCrc            0x00009208    0x38  Code  Gb  memoryCheck.o [1]
CanCheckCard            0x00200008     0x1  Data  Gb  CRCommand.o [1]
CanCheckCardDelay       0x00021ac4    0x10  Code  Gb  CRCommand.o [1]
CardAuthPump            0x00043c68   0x11c  Code  Gb  CRPumpCall.o [1]
CardCanSpring           0x00200009     0x1  Data  Gb  CRCommand.o [1]
CardCanSpringDelay      0x00021ad4    0x10  Code  Gb  CRCommand.o [1]
CardDelay               0x000387e8    0x10  Code  Gb  ICCardInProc.o [1]
CardDelaySet            0x00204f6c     0x1  Data  Gb  ICCardInProc.o [1]
CardDelayed             0x00204f6d     0x1  Data  Gb  ICCardInProc.o [1]
CardFlg                 0x00204f63     0x1  Data  Lc  CardDrive.o [1]
CardFlg                 0x00204fab     0x1  Data  Gb  var.o [1]
CardInInt               0x00204fa8     0x1  Data  Gb  var.o [1]
CardOut                 0x0000d514    0x58  Code  Gb  control.o [1]
CardReader_Proc         0x0002274c   0x190  Code  Gb  CRCommand.o [1]
CardSamWarmReset        0x0001762c   0x66c  Code  Gb  at83c26_app.o [1]
CardStatus              0x00204f14     0x4  Data  Gb  var.o [1]
CardType                0x00204f5c     0x1  Data  Gb  CRVaribles.o [1]
Card_Balance_Update     0x0004b98c    0xf0  Code  Gb  CRPumpEOT.o [1]
Card_Data_Check         0x0003bab8   0x26c  Code  Gb  ICCardInProc2.o [1]
Card_Validate_Check     0x0003ae68   0x1cc  Code  Gb  ICCardInProc2.o [1]
Cash_CR_Buf             0x00204390    0x84  Data  Gb  define.o [1]
CertiMAC2LogType        0x00204f99     0x1  Data  Gb  define.o [1]
CharToIntCopy           0x0001e1fc   0x104  Code  Gb  CRMemCopy.o [1]
CharToShortIntCopy      0x0001e178    0x84  Code  Gb  CRMemCopy.o [1]
CheckAmountTotalLimit   0x00042ef4    0xbc  Code  Gb  CRPumpCall.o [1]
CheckCardRetryTimes     0x00204f46     0x1  Data  Gb  CRPumpBusy.o [1]
CheckCardTime           0x0000884c   0x288  Code  Gb  tools.o [1]
CheckIrq1Int            0x000160ec   0x5ac  Code  Gb  CardDrive.o [1]
CheckListVersion        0x00006c0c    0xf0  Code  Gb  list.o [1]
CheckPowerDownPin       0x0000d56c    0x34  Code  Gb  control.o [1]
CheckPrintIt            0x00033d50   0x3f0  Code  Gb  CRPrint.o [1]
CheckPrintStatus        0x0000de00   0x134  Code  Gb  control.o [1]
CheckTime               0x0004c1d8   0x15c  Code  Gb  CRPowerOn.o [1]
CheckTimer1Go           0x00008f60    0xf0  Code  Gb  tc.o [1]
CheckTimerGo            0x00008d3c    0xfc  Code  Gb  tc.o [1]
CheckUpdatePriceTime    0x0000a1a8    0x50  Code  Gb  AscLog.o [1]
CheckZimo               0x000121b8   0x130  Code  Gb  init.o [1]
Check_Card_Fuelling_Limit
                        0x00042b2c   0x2bc  Code  Gb  CRPumpCall.o [1]
Check_Card_Grade_Brand_Limit
                        0x00042838   0x178  Code  Gb  CRPumpCall.o [1]
Check_Card_Location_Limit
                        0x000429b0   0x16c  Code  Gb  CRPumpCall.o [1]
ChipId                  0x00204f68     0x1  Data  Lc  DbugUsartApp.o [1]
ClearAllRecognizeFlag   0x0001f288    0x3c  Code  Gb  SocialCard.o [1]
ClearBalDispFlag        0x0004ba7c    0x10  Code  Gb  CRPumpEOT.o [1]
ClearBeepFlg            0x0000d634    0x10  Code  Gb  control.o [1]
ClearLcd                0x0000e5f8   0x2b4  Code  Gb  lcd.o [1]
ClearPrintIt            0x000267a4    0x34  Code  Gb  Keypad2.o [1]
Clear_Pump_Timeout      0x00038288    0x10  Code  Gb  Pcomm.o [1]
CloseLcdLight           0x0000d790    0x48  Code  Gb  control.o [1]
CloseLcdLightOil        0x0000d758    0x38  Code  Gb  control.o [1]
ClrPriceReceviceFlg     0x00007270    0x5c  Code  Gb  list.o [1]
CombinationPriceList    0x0000599c   0xea8  Code  Gb  list.o [1]
CommErrorTimes          0x00204f51     0x1  Data  Gb  CRVaribles.o [1]
CompareDate             0x0001e420    0x64  Code  Gb  CRMemCopy.o [1]
ComputeVerifyData       0x0003871c    0xbc  Code  Gb  Verify.o [1]
ComputeZimo             0x0000e8ac    0xd4  Code  Gb  lcd.o [1]
Crc16                   0x000080d0    0xb4  Code  Gb  tools.o [1]
CrcEor                  0x00008764    0x4c  Code  Gb  tools.o [1]
CreateTimer             0x00008b50    0x98  Code  Gb  tc.o [1]
CreateTimer1            0x00008e54    0x98  Code  Gb  tc.o [1]
Ctrl1                   0x00050bdc     0x4  Data  Lc  print.o [1]
Ctrl2                   0x00050be0     0x4  Data  Lc  print.o [1]
Ctrl4                   0x00050be4     0x4  Data  Lc  print.o [1]
CurrentCustomMsg0       0x00204b8c    0x18  Data  Gb  Screen.o [1]
CurrentCustomMsg1       0x00204bbc    0x18  Data  Gb  Screen.o [1]
CurrentCustomMsg2       0x00204bec    0x18  Data  Gb  Screen.o [1]
CurrentCustomMsg3       0x00204c1c    0x18  Data  Gb  Screen.o [1]
CurrentCustomMsg4       0x00204c4c    0x18  Data  Gb  Screen.o [1]
CurrentCustomMsg5       0x00204c7c    0x18  Data  Gb  Screen.o [1]
CurrentCustomMsg6       0x00204cac    0x18  Data  Gb  Screen.o [1]
CurrentCustomMsg7       0x00204cdc    0x18  Data  Gb  Screen.o [1]
CurrentCustomMsg8       0x00204d0c    0x18  Data  Gb  Screen.o [1]
CurrentCustomMsg9       0x00204d3c    0x18  Data  Gb  Screen.o [1]
CurrentInfoLine         0x00204b5c    0x18  Data  Gb  Screen.o [1]
CustomMsg0              0x00204b74    0x18  Data  Gb  Screen.o [1]
CustomMsg1              0x00204ba4    0x18  Data  Gb  Screen.o [1]
CustomMsg2              0x00204bd4    0x18  Data  Gb  Screen.o [1]
CustomMsg3              0x00204c04    0x18  Data  Gb  Screen.o [1]
CustomMsg4              0x00204c34    0x18  Data  Gb  Screen.o [1]
CustomMsg5              0x00204c64    0x18  Data  Gb  Screen.o [1]
CustomMsg6              0x00204c94    0x18  Data  Gb  Screen.o [1]
CustomMsg7              0x00204cc4    0x18  Data  Gb  Screen.o [1]
CustomMsg8              0x00204cf4    0x18  Data  Gb  Screen.o [1]
CustomMsg9              0x00204d24    0x18  Data  Gb  Screen.o [1]
DBLLink                 0x002048c4    0x40  Data  Gb  var.o [1]
DBUG_US_EnableIt        0x0001985c     0x8  Code  Gb  init.o [1]
DISPMSG                 0x0003d5cc  0x2490  Data  Gb  Message.o [1]
DISP_CR_Buf             0x002047f8    0x48  Data  Gb  define.o [1]
DS                      0x00050bd0     0x4  Data  Lc  DbugUsartApp.o [1]
DataCheckFlg            0x00204f8b     0x1  Data  Gb  Pvar.o [1]
DbugDispose             0x00033868   0x1f8  Code  Gb  DbugUsartApp.o [1]
DbugFlg                 0x00204f67     0x1  Data  Lc  DbugUsartApp.o [1]
DbugFormatAll           0x00030efc   0x3c0  Code  Gb  DbugUsartApp.o [1]
DbugFormatConfig        0x0002ff68   0x3c0  Code  Gb  DbugUsartApp.o [1]
DbugFormatLog           0x00030b20   0x3c0  Code  Gb  DbugUsartApp.o [1]
DbugFormatProtected     0x0003070c   0x3c0  Code  Gb  DbugUsartApp.o [1]
DbugFormatRecord        0x00030338   0x3c0  Code  Gb  DbugUsartApp.o [1]
DbugReceviceCommand1    0x00031d20   0x458  Code  Gb  DbugUsartApp.o [1]
DbugReceviceForamt      0x000312c0   0x568  Code  Gb  DbugUsartApp.o [1]
DbugReceviceGcode       0x00031ad8   0x21c  Code  Gb  DbugUsartApp.o [1]
DbugReceviceGcodeData   0x00031968    0x88  Code  Gb  DbugUsartApp.o [1]
DbugReceviceGcodeLen    0x000319f8    0xe0  Code  Gb  DbugUsartApp.o [1]
DbugReceviceLoading     0x0002fac0   0x470  Code  Gb  DbugUsartApp.o [1]
DbugReceviceLoadingAll  0x0002f7ac   0x308  Code  Gb  DbugUsartApp.o [1]
DbugReceviceLoadingLog  0x0002f4dc   0x2d0  Code  Gb  DbugUsartApp.o [1]
DbugReceviceLoadingRecord
                        0x0002f1e0   0x2fc  Code  Gb  DbugUsartApp.o [1]
DbugReceviceTicketHead  0x00031834   0x120  Code  Gb  DbugUsartApp.o [1]
DbugSendBack            0x0002f160    0x80  Code  Gb  DbugUsartApp.o [1]
DbugSerial              0x00204b28    0x1c  Data  Gb  var.o [1]
DbugStartRecevice       0x00032184   0x144  Code  Gb  DbugUsartApp.o [1]
DbugTime                0x00204e94     0x4  Data  Lc  DbugUsartApp.o [1]
DbugUsart_Configure     0x00019804    0x58  Code  Gb  init.o [1]
DelBlackListHead        0x00204af0    0x1c  Data  Lc  list.o [1]
DelPrintTask            0x0001d3b4    0xc8  Code  Gb  print.o [1]
DeleteTimer             0x00008be8    0x74  Code  Gb  tc.o [1]
DeleteTimer1            0x00008eec    0x74  Code  Gb  tc.o [1]
DestroyInput            0x00025318   0x14c  Code  Gb  KeypadMain.o [1]
DestroyListIntegrality  0x00003fe0   0x58c  Code  Gb  list.o [1]
DisBuf                  0x00201e68   0x480  Data  Gb  var.o [1]
DisBufToLcd             0x00010a74   0x144  Code  Gb  lcd.o [1]
DisPlayHelp             0x00010bb8    0x60  Code  Gb  lcd.o [1]
DispAppType             0x00024778   0x1c0  Code  Gb  Display.o [1]
DispClearInfoScr        0x00022e80    0x48  Code  Gb  Display.o [1]
DispClearScr            0x00022dbc    0x54  Code  Gb  Display.o [1]
DispClearTransScr       0x00022e10    0x70  Code  Gb  Display.o [1]
DispIdle                0x000285bc    0x70  Code  Gb  Keypad2.o [1]
DispInfoDelayTimeOut    0x000229ec    0x34  Code  Gb  Message.o [1]
DispInfoLine            0x0002466c   0x108  Code  Gb  Display.o [1]
DispListInversedIdx     0x00204f94     0x1  Data  Gb  Screen.o [1]
DispLocationLimit       0x00043e44    0x84  Code  Gb  CRPumpCall.o [1]
DispRecordIdx           0x00204f95     0x1  Data  Gb  Screen.o [1]
DispRounding            0x00024938    0xb4  Code  Gb  Display.o [1]
Disp_Totals_Update      0x00047954   0x164  Code  Gb  CRPumpBusy.o [1]
DisplayCartoon          0x0000ec2c   0x4a8  Code  Gb  lcd.o [1]
DisplayChar4x5          0x0000f0e4   0x2a8  Code  Gb  lcd.o [1]
DisplayChar7x12         0x0000f448   0x400  Code  Gb  lcd.o [1]
DisplayContra           0x00010588   0x2f0  Code  Gb  lcd.o [1]
DisplayError            0x0000e980    0xd8  Code  Gb  lcd.o [1]
DisplayLogo             0x0000ea58   0x1d4  Code  Gb  lcd.o [1]
DisplayOnLine           0x00010878   0x1fc  Code  Gb  lcd.o [1]
DisplayProcess          0x00022aec   0x2a4  Code  Gb  Display.o [1]
DisplayString12         0x0000fc74    0xe0  Code  Gb  lcd.o [1]
DisplayString4x5        0x0000f39c    0x98  Code  Gb  lcd.o [1]
DisplayText12x12        0x0000f84c   0x410  Code  Gb  lcd.o [1]
DisplayVerNumber        0x00010c18    0x30  Code  Gb  lcd.o [1]
DownLoadPriceFlg        0x00204f79     0x1  Data  Gb  PosVar.o [1]
DownLoadStatus          0x00204f76     0x1  Data  Gb  PosVar.o [1]
DownLoadTmr             0x00204ec0     0x4  Data  Gb  PosVar.o [1]
DrawBalanceSCR          0x000231ec    0x10  Code  Gb  Display.o [1]
DrawBalanceSCR_Card     0x000231fc   0x26c  Code  Gb  Display.o [1]
DrawCardBusy            0x000238ac   0x12c  Code  Gb  Display.o [1]
DrawCardBusySCR         0x0002361c    0x10  Code  Gb  Display.o [1]
DrawCardBusySCR_Card    0x0002362c   0x268  Code  Gb  Display.o [1]
DrawCardBusySaveOil     0x000239e0   0x12c  Code  Gb  Display.o [1]
DrawCardInSCR           0x000231b4    0x38  Code  Gb  Display.o [1]
DrawErrorSCR            0x00023468    0x5c  Code  Gb  Display.o [1]
DrawFunctionSCR         0x00023b10    0x40  Code  Gb  Display.o [1]
DrawHorizontalLine      0x0000e244    0xc8  Code  Gb  lcd.o [1]
DrawKeypadChoosePrintSCR
                        0x000249f0    0xe4  Code  Gb  Display.o [1]
DrawNormalScr           0x00023fac   0x6b0  Code  Gb  Display.o [1]
DrawOverFuelScreen      0x00024adc   0x114  Code  Gb  Display.o [1]
DrawPopUpScr            0x00023b9c   0x3a8  Code  Gb  Display.o [1]
DrawPriceUpdateSCR      0x00023520    0xfc  Code  Gb  Display.o [1]
DrawRectangle           0x0000e484    0x8c  Code  Gb  lcd.o [1]
DrawScr                 0x00022ec8   0x2ec  Code  Gb  Display.o [1]
DrawVerticalline        0x0000e30c   0x178  Code  Gb  lcd.o [1]
DrawWaitingSCR          0x000234c4    0x5c  Code  Gb  Display.o [1]
EMP                     0x00050984     0x8  Data  Lc  DbugUsartApp.o [1]
ErasePowerDownTrans     0x0000a854    0x48  Code  Gb  AscLog.o [1]
ErrorFlag               0x00204e80     0x4  Data  Gb  CRVaribles.o [1]
FIQ_STACK$$Base         0x002067b0           --   Gb  - Linker created -
FIQ_STACK$$Limit        0x002067f0           --   Gb  - Linker created -
FillAuthError           0x000436d8    0x28  Code  Gb  CRPumpCall.o [1]
FillCardErrorData       0x0003ba08    0x90  Code  Gb  ICCardInProc2.o [1]
FillInfoMsg             0x00022a20    0x3c  Code  Gb  Message.o [1]
FillPrintBuffer         0x00033bc8   0x188  Code  Gb  CRPrint.o [1]
Fill_Journal            0x000464d8   0x6c4  Code  Gb  Journal.o [1]
FindAddBlackList        0x000030d8   0x260  Code  Gb  list.o [1]
FindBaseBlackList       0x00002de0   0x2f8  Code  Gb  list.o [1]
FindDelBlackList        0x00003348   0x260  Code  Gb  list.o [1]
FindGrayRecord          0x0000b0ac   0x2b8  Code  Gb  record.o [1]
FindInMem               0x0001e484    0x84  Code  Gb  CRMemCopy.o [1]
FindRecordTTC           0x0000afc8    0xe4  Code  Gb  record.o [1]
FindWhiteList           0x000035b4   0x260  Code  Gb  list.o [1]
ForceRebuildProtected   0x00008b30     0x4  Code  Gb  tools.o [1]
FormatAll               0x00000558    0xec  Code  Gb  list.o [1]
FormatConfig            0x00000100   0x180  Code  Gb  list.o [1]
FormatDataFlash         0x00000644   0x2cc  Code  Gb  list.o [1]
FormatFlg               0x00204f2c     0x2  Data  Lc  DbugUsartApp.o [1]
FormatId                0x00204f73     0x1  Data  Gb  Keypad.o [1]
FormatLog               0x000004a4    0xb4  Code  Gb  list.o [1]
FormatPWD               0x00050c24     0x2  Data  Gb  Keypad.o [1]
FormatProtected         0x00000354   0x150  Code  Gb  list.o [1]
FormatRecord            0x00000280    0xd4  Code  Gb  list.o [1]
FuncPWD                 0x00050c22     0x2  Data  Gb  Keypad.o [1]
GCODE_100               0x00050714     0xc  Data  Lc  print.o [1]
GCODE_90                0x00050b84     0x8  Data  Lc  print.o [1]
GCODE_93                0x00050b8c     0x8  Data  Lc  print.o [1]
GCODE_95                0x00050b94     0x8  Data  Lc  print.o [1]
GCODE_97                0x00050b9c     0x8  Data  Lc  print.o [1]
GCODE_98                0x00050ba4     0x8  Data  Lc  print.o [1]
GCODE_Chai              0x00050bac     0x8  Data  Lc  print.o [1]
GCODE_Qi                0x00050bb4     0x8  Data  Lc  print.o [1]
GMAC                    0x00050944     0x8  Data  Lc  DbugUsartApp.o [1]
G_CODE                  0x0005096c     0x8  Data  Lc  DbugUsartApp.o [1]
GcodeCurNum             0x00204ea8     0x4  Data  Lc  DbugUsartApp.o [1]
GcodeLen                0x00204ea0     0x4  Data  Lc  DbugUsartApp.o [1]
GcodePackNum            0x00204ea4     0x4  Data  Lc  DbugUsartApp.o [1]
GetAddBlackListIntegrality
                        0x0003d5ac    0x10  Code  Gb  ICCardInProc2.o [1]
GetAddListData_Area     0x00006ec0    0x24  Code  Gb  list.o [1]
GetAmountTotal          0x00027f64   0x138  Code  Gb  Keypad2.o [1]
GetAmountTotalLogOn     0x000281ec   0x138  Code  Gb  Keypad2.o [1]
GetBaseBlackListIntegrality
                        0x0003d59c    0x10  Code  Gb  ICCardInProc2.o [1]
GetBaseListData_Area    0x00006e9c    0x24  Code  Gb  list.o [1]
GetCity                 0x00006d08     0xc  Code  Gb  list.o [1]
GetCurrentBackLightTime
                        0x00025bdc    0xd8  Code  Gb  Keypad2.o [1]
GetDelBlackListIntegrality
                        0x0003d5bc    0x10  Code  Gb  ICCardInProc2.o [1]
GetDelListData_Area     0x00006ee4    0x24  Code  Gb  list.o [1]
GetDispRecordSpace      0x00027d54    0xb0  Code  Gb  Keypad2.o [1]
GetEmpPWD               0x0003c6ec    0xac  Code  Gb  CRSFunc.o [1]
GetFuellingInfo         0x00047ab8   0x17c  Code  Gb  CRPumpBusy.o [1]
GetGMACRetryTimes       0x00204f4b     0x1  Data  Gb  CRVaribles.o [1]
GetGUN_N                0x00006d60    0x28  Code  Gb  list.o [1]
GetGradePriceIntegrality
                        0x000387d8    0x10  Code  Gb  Pump.o [1]
GetKey                  0x00019c48    0x4c  Code  Gb  key.o [1]
GetLcdLightCloseTime    0x000286d4    0x10  Code  Gb  Keypad2.o [1]
GetLcdLightOpenTime     0x000286c4    0x10  Code  Gb  Keypad2.o [1]
GetListVersion          0x00006844    0xb0  Code  Gb  list.o [1]
GetLogicNzn             0x00006d88    0x3c  Code  Gb  list.o [1]
GetNextPrice            0x00006b6c    0xa0  Code  Gb  list.o [1]
GetO_Type               0x00006ae8    0x84  Code  Gb  list.o [1]
GetOfflineData          0x0003c9ac   0x15c  Code  Gb  CRSFunc.o [1]
GetPOS_P                0x00006d54     0xc  Code  Gb  list.o [1]
GetPSAMCheck            0x00028468    0x60  Code  Gb  Keypad2.o [1]
GetPhysicsNzn           0x00006dc4    0x5c  Code  Gb  list.o [1]
GetPreset               0x00025710   0x4cc  Code  Gb  Keypad2.o [1]
GetPrice                0x000069d4   0x114  Code  Gb  list.o [1]
GetPriceInfo            0x0002832c   0x134  Code  Gb  Keypad2.o [1]
GetPriceUpdateFlg       0x0004f01c    0x10  Code  Gb  Schedule.o [1]
GetPrintSetStatus       0x00026024   0x74c  Code  Gb  Keypad2.o [1]
GetProv                 0x00006cfc     0xc  Code  Gb  list.o [1]
GetPumpCallInfo         0x00043714   0x1c4  Code  Gb  CRPumpCall.o [1]
GetPumpTotals           0x0003c640    0xac  Code  Gb  CRSFunc.o [1]
GetQueCharNumber        0x0000c6f8    0x48  Code  Gb  m1172.o [1]
GetRecordSpace          0x00010ccc    0x68  Code  Gb  record.o [1]
GetRs485Adr             0x00007d7c    0x1c  Code  Gb  tools.o [1]
GetSFuncData            0x0003c798   0x214  Code  Gb  CRSFunc.o [1]
GetS_ID                 0x00006d34    0x20  Code  Gb  list.o [1]
GetStationInfo          0x00027b6c   0x1e4  Code  Gb  Keypad2.o [1]
GetSuperior             0x00006d14    0x20  Code  Gb  list.o [1]
GetTrans                0x00026cac    0xb0  Code  Gb  Keypad2.o [1]
GetTrans0               0x00026d78    0xc8  Code  Gb  Keypad2.o [1]
GetTrans1               0x00026e4c   0x168  Code  Gb  Keypad2.o [1]
GetTrans2               0x00026fb8   0x1e0  Code  Gb  Keypad2.o [1]
GetTrans3               0x000271a8   0x18c  Code  Gb  Keypad2.o [1]
GetTrans4               0x0002733c   0x250  Code  Gb  Keypad2.o [1]
GetTrans5               0x000275e0   0x110  Code  Gb  Keypad2.o [1]
GetTrans6               0x0002773c   0x10c  Code  Gb  Keypad2.o [1]
GetTransTTC             0x0001e54c    0x58  Code  Gb  CRMemCopy.o [1]
GetTransTime            0x0001e508    0x44  Code  Gb  CRMemCopy.o [1]
GetTransType            0x00027864   0x19c  Code  Gb  Keypad2.o [1]
GetUnfinishedTrans      0x00026974   0x338  Code  Gb  Keypad2.o [1]
GetVersionDispMessage   0x000284d8    0xd8  Code  Gb  Keypad2.o [1]
GetVipGradePrice        0x0001f3cc    0xe4  Code  Gb  SocialCard.o [1]
GetVolumeTotal          0x00027e1c   0x138  Code  Gb  Keypad2.o [1]
GetVolumeTotalLogOn     0x000280a8   0x138  Code  Gb  Keypad2.o [1]
GetWhiteListIntegrality
                        0x0003d58c    0x10  Code  Gb  ICCardInProc2.o [1]
GetWriteTTC             0x0001edc8    0x10  Code  Gb  Keypad.o [1]
GetZeroLastTran         0x00047c34    0xc4  Code  Gb  CRPumpBusy.o [1]
Gilbarco                0x000505a0     0xc  Data  Lc  lcd.o [1]
GradePrice              0x0020346c   0x1c8  Data  Gb  var.o [1]
GreyInquiry             0x00204d54    0x18  Data  Gb  define.o [1]
GreyResponse            0x00204a38    0x2c  Data  Gb  define.o [1]
HandlerAbort            0x00206874     0x4  Data  Gb  var.o [1]
Hex2Asc                 0x0001e68c    0xd4  Code  Gb  CRMemCopy.o [1]
HexTimeToComBcdTime     0x0000d830   0x340  Code  Gb  control.o [1]
HexToAscii              0x00019d4c   0x124  Code  Gb  print.o [1]
HexToComBcd             0x000086a8    0xbc  Code  Gb  tools.o [1]
HoldCard                0x00204f4f     0x1  Data  Gb  CRVaribles.o [1]
ICCARD_CAPDU_COMMAND_CL
                        0x00050c14     0x2  Data  Gb  CRVaribles.o [1]
ICCARD_CAPDU_COMMAND_T0
                        0x00050c18     0x2  Data  Gb  CRVaribles.o [1]
ICCARD_COLD_RESET_7816  0x00050bc4     0x4  Data  Gb  CRVaribles.o [1]
ICCardAbsence           0x0004dda8   0x164  Code  Gb  ICCardProc.o [1]
ICCardProcess           0x0004d144   0x130  Code  Gb  CardReader.o [1]
ICCard_Absence          0x0004dd6c    0x3c  Code  Gb  ICCardProc.o [1]
ICCard_Absence_Proc     0x0004d9f8   0x374  Code  Gb  ICCardProc.o [1]
ICCard_Busy_External_Proc
                        0x0004a8e8   0x11c  Code  Gb  ExCRProc.o [1]
ICCard_Clear_Lock_Proof
                        0x0001ff8c    0xb4  Code  Gb  ICCardCommand.o [1]
ICCard_Debit_Grey_Unlock
                        0x00020358   0x2c0  Code  Gb  ICCardCommand.o [1]
ICCard_Default_PIN      0x00200004     0x2  Data  Gb  CRVaribles.o [1]
ICCard_Default_PIN_Len  0x0020000b     0x1  Data  Gb  CRVaribles.o [1]
ICCard_EOT_Proc         0x0004b37c   0x610  Code  Gb  CRPumpEOT.o [1]
ICCard_Exist_External_Proc
                        0x0004a078   0x6cc  Code  Gb  ExCRProc.o [1]
ICCard_Fuelling_Proc    0x00047230   0x580  Code  Gb  CRPumpBusy.o [1]
ICCard_Get_Balance      0x00020040    0xb4  Code  Gb  ICCardCommand.o [1]
ICCard_Get_Lock_Proof   0x0001fed8    0xb4  Code  Gb  ICCardCommand.o [1]
ICCard_Get_Response     0x00020624   0x190  Code  Gb  ICCardCommand.o [1]
ICCard_Grey_Card_Proc   0x0004aaac   0x324  Code  Gb  GreyCard.o [1]
ICCard_Init_Grey_Lock   0x000200f4    0xf0  Code  Gb  ICCardCommand.o [1]
ICCard_Inserted_Proc    0x000387fc  0x23f8  Code  Gb  ICCardInProc.o [1]
ICCard_Journal_Proc     0x0004571c   0xd6c  Code  Gb  Journal.o [1]
ICCard_LogOff_Proc      0x0003c08c   0x30c  Code  Gb  CRSFunc.o [1]
ICCard_LogOn_Proc       0x0003bda8   0x2e4  Code  Gb  CRSFunc.o [1]
ICCard_NonExist_External_Proc
                        0x0004a744   0x1a4  Code  Gb  ExCRProc.o [1]
ICCard_Offl_Trans_Proc  0x0003c398   0x1b0  Code  Gb  CRSFunc.o [1]
ICCard_Price_Recv_Proc  0x0003c548    0xf8  Code  Gb  CRSFunc.o [1]
ICCard_Pump_Call_Proc   0x00041e50   0x9e0  Code  Gb  CRPumpCall.o [1]
ICCard_Read_FID_0x15    0x0001f9b8    0xb4  Code  Gb  ICCardCommand.o [1]
ICCard_Read_Record      0x0001fd3c    0xb8  Code  Gb  ICCardCommand.o [1]
ICCard_Read_SFI_0x15    0x0001fa6c    0xb4  Code  Gb  ICCardCommand.o [1]
ICCard_Read_SFI_0x16    0x0001fb20    0xb4  Code  Gb  ICCardCommand.o [1]
ICCard_Read_SFI_0x1B    0x0001fbd4    0xb4  Code  Gb  ICCardCommand.o [1]
ICCard_Read_SFI_0x1C    0x0001fc88    0xb4  Code  Gb  ICCardCommand.o [1]
ICCard_Ready_Proc       0x0004df58    0xa4  Code  Gb  CardReady.o [1]
ICCard_Select_Loyalty_APP
                        0x0001f810    0xd4  Code  Gb  ICCardCommand.o [1]
ICCard_Select_Saveoil_APP
                        0x0001f8e4    0xd4  Code  Gb  ICCardCommand.o [1]
ICCard_Select_Sinopec_APP
                        0x0001f73c    0xd4  Code  Gb  ICCardCommand.o [1]
ICCard_Select_Social_APP
                        0x0001efd0    0xd4  Code  Gb  SocialCard.o [1]
ICCard_Set_Grey_Lock    0x000201e4   0x154  Code  Gb  ICCardCommand.o [1]
ICCard_Verify_Pin       0x0001fdf4    0xe4  Code  Gb  ICCardCommand.o [1]
IC_INIT_ERROR           0x00050214    0x10  Data  Lc  init.o [1]
IRQ_STACK$$Base         0x002063b0           --   Gb  - Linker created -
IRQ_STACK$$Limit        0x002067b0           --   Gb  - Linker created -
ISR_Spi                 0x0004cae8    0x24  Code  Gb  f_irq.o [1]
ISR_fiq                 0x0004c500    0x68  Code  Gb  f_irq.o [1]
ISR_irq0                0x0004c4b0    0x28  Code  Gb  f_irq.o [1]
ISR_irq1                0x0004c4d8    0x28  Code  Gb  f_irq.o [1]
ISR_timer0              0x0004ca60    0x44  Code  Gb  f_irq.o [1]
ISR_timer1              0x0004caa4    0x44  Code  Gb  f_irq.o [1]
ISR_usart0              0x0004c568   0x1c8  Code  Gb  f_irq.o [1]
ISR_usart1              0x0004c730   0x330  Code  Gb  f_irq.o [1]
IcCardComDispose        0x000158a4   0x590  Code  Gb  CardDrive.o [1]
IcComm                  0x00204e08     0x8  Data  Lc  CardDrive.o [1]
IcDataBuf               0x00203b90   0x100  Data  Lc  CardDrive.o [1]
IcTypeFlg               0x00204faa     0x1  Data  Gb  var.o [1]
IdleFlg                 0x00204fa6     0x1  Data  Gb  var.o [1]
IdleFlgSta              0x00204f98     0x1  Data  Lc  control.o [1]
InfoLine                0x00204b44    0x18  Data  Gb  Screen.o [1]
InitCardInterface       0x000166d4   0x2a0  Code  Gb  at83c26_app.o [1]
InitCardReaderProcess   0x0004d274    0xfc  Code  Gb  CardReader.o [1]
InitCardSamClock        0x00016974    0xf4  Code  Gb  at83c26_app.o [1]
InitDbugUSART           0x00011888    0x84  Code  Gb  init.o [1]
InitDbugUSART_Func      0x0001190c    0xb0  Code  Gb  init.o [1]
InitDisplayProcess      0x00022d90    0x2c  Code  Gb  Display.o [1]
InitFormating           0x00050204    0x10  Data  Lc  init.o [1]
InitICCardRecognizeSwitch
                        0x0001f108   0x180  Code  Gb  SocialCard.o [1]
InitIO                  0x00011230   0x1ac  Code  Gb  init.o [1]
InitKeyStruct           0x000199f4    0x88  Code  Gb  key.o [1]
InitKeypadProcess       0x0002526c    0x1c  Code  Gb  KeypadMain.o [1]
InitLcd                 0x0000e18c    0x78  Code  Gb  lcd.o [1]
InitM1172               0x00011f38   0x234  Code  Gb  init.o [1]
InitM1172Count          0x00204e84     0x4  Data  Lc  DbugUsart.o [1]
InitM1172_Count         0x0000913c    0x34  Code  Gb  DbugUsart.o [1]
InitMemList             0x00012170    0x2c  Code  Gb  init.o [1]
InitPIT                 0x00011aac    0x38  Code  Gb  init.o [1]
InitPosProcess          0x0004e840    0x2c  Code  Gb  POS.o [1]
InitPrint               0x00019e70    0x50  Code  Gb  print.o [1]
InitPrintProcess        0x00033b44    0x84  Code  Gb  CRPrint.o [1]
InitPrintTaskList       0x0001d278    0x78  Code  Gb  print.o [1]
InitPumpProcess         0x0004f02c   0x14c  Code  Gb  Pinit.o [1]
InitSMC                 0x00011ae4    0xbc  Code  Gb  init.o [1]
InitSPI                 0x00011c0c   0x2ec  Code  Gb  init.o [1]
InitSys                 0x00011018   0x218  Code  Gb  init.o [1]
InitSysTime             0x00011ba0    0x50  Code  Gb  init.o [1]
InitTWI                 0x000113dc   0x1d0  Code  Gb  init.o [1]
InitTimer0              0x000119bc    0x7c  Code  Gb  init.o [1]
InitTimer1              0x00011a38    0x74  Code  Gb  init.o [1]
InitTmrList             0x00008b34    0x1c  Code  Gb  tc.o [1]
InitTmrList1            0x00008e38    0x1c  Code  Gb  tc.o [1]
InitUSART0              0x000115ac    0xbc  Code  Gb  init.o [1]
InitUSART1              0x00011668   0x220  Code  Gb  init.o [1]
InitVoiceProcess        0x0004dffc    0x1c  Code  Gb  Voice.o [1]
InputAmountTotal        0x0002a7ec    0x94  Code  Gb  Keypad.o [1]
InputAmountTotalLogOn   0x0002a888    0x94  Code  Gb  Keypad.o [1]
InputAuthCode           0x00029e94   0x1e8  Code  Gb  Keypad.o [1]
InputBacklighttime      0x0002ae58   0x36c  Code  Gb  Keypad.o [1]
InputBlackListSetup     0x0002d734    0xdc  Code  Gb  Keypad.o [1]
InputBuf                0x00204dd0    0x10  Data  Gb  KeyMask.o [1]
InputCard               0x00028914    0x68  Code  Gb  Keypad.o [1]
InputCardAppSwitch      0x0002e70c   0x2cc  Code  Gb  Keypad.o [1]
InputCardBalance        0x00028aac    0x10  Code  Gb  Keypad.o [1]
InputCardBalance_Card   0x00028abc   0x1d8  Code  Gb  Keypad.o [1]
InputCardBusy           0x0002897c   0x130  Code  Gb  Keypad.o [1]
InputCardError          0x00028c98   0x128  Code  Gb  Keypad.o [1]
InputCardRecoginze      0x0002e428   0x1cc  Code  Gb  Keypad.o [1]
InputCardWaiting        0x00028c94     0x4  Code  Gb  Keypad.o [1]
InputChoosePrint        0x0002a91c    0x68  Code  Gb  Keypad.o [1]
InputCustomerPrint      0x0002b564   0x28c  Code  Gb  Keypad.o [1]
InputDebitPowerDown     0x0002d654    0xdc  Code  Gb  Keypad.o [1]
InputDispTrans          0x0002d828   0x2f8  Code  Gb  Keypad.o [1]
InputEMPNumber          0x0002ec10   0x24c  Code  Gb  Keypad.o [1]
InputEMPPWD             0x000292f0   0x1e4  Code  Gb  Keypad.o [1]
InputEMPPrint           0x0002b814   0x28c  Code  Gb  Keypad.o [1]
InputENTERKey           0x000294d4    0x28  Code  Gb  Keypad.o [1]
InputEnd                0x0002db24     0x4  Code  Gb  Keypad.o [1]
InputExpandSetPrint     0x0002c1e4   0x320  Code  Gb  Keypad.o [1]
InputFormat             0x0002cf38   0x458  Code  Gb  Keypad.o [1]
InputFormatConfig       0x0002d4d8    0xc8  Code  Gb  Keypad.o [1]
InputFormatPWD          0x00029c14   0x278  Code  Gb  Keypad.o [1]
InputFormatRecord       0x0002d5a8    0xa4  Code  Gb  Keypad.o [1]
InputFunction           0x0002a080   0x370  Code  Gb  Keypad.o [1]
InputFunctionPWD        0x0002972c   0x1fc  Code  Gb  Keypad.o [1]
InputICCardSwitch       0x0002e604    0xe4  Code  Gb  Keypad.o [1]
InputInquire            0x0002a44c   0x250  Code  Gb  Keypad.o [1]
InputInquirySwitchSet   0x0002c5ec    0xe4  Code  Gb  Keypad.o [1]
InputLen                0x00204f70     0x1  Data  Gb  KeyMask.o [1]
InputLocalPrinter       0x0002d3ec    0xcc  Code  Gb  Keypad.o [1]
InputLockNozzleSet      0x0002e260    0xe4  Code  Gb  Keypad.o [1]
InputMaintainPWD        0x0002950c   0x208  Code  Gb  Keypad.o [1]
InputManageSocial       0x0002dc54   0x5f8  Code  Gb  Keypad.o [1]
InputMatnFunction       0x0002c7bc   0x3fc  Code  Gb  Keypad.o [1]
InputMatnPrint          0x0002bd40   0x28c  Code  Gb  Keypad.o [1]
InputOverFueling        0x0002ee5c    0x48  Code  Gb  Keypad.o [1]
InputOverFuelingPassword
                        0x0002eea8   0x1e4  Code  Gb  Keypad.o [1]
InputPOSP               0x0002d394    0x50  Code  Gb  Keypad.o [1]
InputPSAM               0x0002b488    0xdc  Code  Gb  Keypad.o [1]
InputPin                0x00029104   0x1ec  Code  Gb  Keypad.o [1]
InputPriceInquiry       0x0002a984    0x58  Code  Gb  Keypad.o [1]
InputPriceUpdate        0x00028dc0    0x78  Code  Gb  Keypad.o [1]
InputPrint              0x0002b1dc   0x23c  Code  Gb  Keypad.o [1]
InputPrinterSwitchSet   0x0002c508    0xe4  Code  Gb  Keypad.o [1]
InputPubTransPrint      0x0002bfd4   0x1ec  Code  Gb  Keypad.o [1]
InputReceiptSwitchSet   0x0002c6d4    0xe4  Code  Gb  Keypad.o [1]
InputRecordSpace        0x0002a6ac    0x10  Code  Gb  Keypad.o [1]
InputSafeModeSet        0x0002e344    0xe4  Code  Gb  Keypad.o [1]
InputSaveOilAppSet      0x0002e9e4   0x100  Code  Gb  Keypad.o [1]
InputSelectApp          0x00028f24    0xf0  Code  Gb  Keypad.o [1]
InputSelectAppSaveoil   0x00029014    0xf0  Code  Gb  Keypad.o [1]
InputSelectPayMode      0x00028e38    0xec  Code  Gb  Keypad.o [1]
InputSetupFunction      0x0002acb0   0x198  Code  Gb  Keypad.o [1]
InputSoftwareUpgrade    0x0002d4b8    0x18  Code  Gb  Keypad.o [1]
InputStart              0x00028910     0x4  Code  Gb  Keypad.o [1]
InputStation            0x0002a69c    0x10  Code  Gb  Keypad.o [1]
InputTTC                0x0002a9ec   0x2b4  Code  Gb  Keypad.o [1]
InputTestPrint          0x0002baa0   0x28c  Code  Gb  Keypad.o [1]
InputUnfinishedTrans    0x0002cbb8    0x94  Code  Gb  Keypad.o [1]
InputUnlockPWD          0x00029948   0x2c0  Code  Gb  Keypad.o [1]
InputUpload             0x0002cc50   0x270  Code  Gb  Keypad.o [1]
InputUploadReady        0x0002cec0    0x50  Code  Gb  Keypad.o [1]
InputVersion            0x0002a3f8    0x48  Code  Gb  Keypad.o [1]
InputVipFuelingSet      0x0002eafc   0x100  Code  Gb  Keypad.o [1]
InputVolume             0x0002b418    0x70  Code  Gb  Keypad.o [1]
InputVolumeTotal        0x0002a6bc    0x94  Code  Gb  Keypad.o [1]
InputVolumeTotalLogOn   0x0002a750    0x94  Code  Gb  Keypad.o [1]
InputWorkManage         0x0002db28   0x104  Code  Gb  Keypad.o [1]
IntEndianConvert        0x0000807c    0x1c  Code  Gb  tools.o [1]
IntToCharCopy           0x0001e334    0x44  Code  Gb  CRMemCopy.o [1]
Iso7816WarmReset        0x000145b8    0x24  Code  Gb  CardDrive.o [1]
IsoGetAtr               0x00013a20   0x498  Code  Gb  CardDrive.o [1]
IssueLog                0x000254a4    0xf4  Code  Gb  Keypad2.o [1]
IssueLogDispInfoLine    0x00025598    0x80  Code  Gb  Keypad2.o [1]
IssueOfflineTrans       0x0004aa04    0x68  Code  Gb  ExCRProc.o [1]
JournalFlag             0x00204f5e     0x1  Data  Gb  CRVaribles.o [1]
KEYPAD_CR_Buf           0x00204df0     0xc  Data  Gb  define.o [1]
KeepBalScreen           0x00204f50     0x1  Data  Gb  CRVaribles.o [1]
Key                     0x00204da8    0x14  Data  Gb  var.o [1]
KeyCode                 0x0004fc28    0x1c  Data  Lc  key.o [1]
KeyDispTrans            0x002045d8    0x60  Data  Gb  Keypad.o [1]
KeyInScanCode           0x00050ae4     0x8  Data  Lc  key.o [1]
KeyMask                 0x00204f6e     0x1  Data  Gb  KeyMask.o [1]
KeyMask_Default         0x0004fb80    0x1c  Data  Gb  KeyMask.o [1]
KeyMask_Fuelling        0x0004fb9c    0x1c  Data  Gb  KeyMask.o [1]
KeyOutScanCode          0x00050adc     0x8  Data  Lc  key.o [1]
KeyPressed              0x00025288    0x90  Code  Gb  KeypadMain.o [1]
KeyValue                0x00204f6f     0x1  Data  Gb  KeyMask.o [1]
KeypadPrintCard         0x00204f5d     0x1  Data  Gb  CRVaribles.o [1]
KeypadProcess           0x00024cb0   0x5bc  Code  Gb  KeypadMain.o [1]
KeypadTable             0x0004f2c0   0x118  Data  Gb  Keypad.o [1]
LOCK_NOZZLE             0x00204f00     0x4  Data  Gb  define.o [1]
LOYALTY_APP_AID         0x00050468     0xc  Data  Lc  ICCardCommand.o [1]
LastDefaultSCRStatus    0x00204efc     0x4  Data  Gb  Screen.o [1]
LastDispAmount          0x00204eb4     0x4  Data  Gb  Display.o [1]
LastDispVolume          0x00204eb8     0x4  Data  Gb  Display.o [1]
LastScreenID            0x00204f93     0x1  Data  Gb  Screen.o [1]
LcdBackLightControl     0x0000d7d8    0x58  Code  Gb  control.o [1]
LcdErr                  0x0000e510    0xe8  Code  Gb  lcd.o [1]
LcdLightFlg             0x00204fa5     0x1  Data  Gb  var.o [1]
LcdStatus               0x00204fa7     0x1  Data  Gb  var.o [1]
LimitCode               0x0004f4dc    0xd4  Data  Lc  AscLog.o [1]
ListBuf                 0x00203288   0x1e4  Data  Lc  list.o [1]
ListFlg                 0x00204dbc    0x14  Data  Gb  var.o [1]
ListIntegrality         0x00006f0c   0x1ac  Code  Gb  list.o [1]
ListLimit               0x00204f9a     0x1  Data  Lc  list.o [1]
LoadConfig              0x000095a0   0x808  Code  Gb  AscLog.o [1]
LoadGradePriceList      0x00005248   0x71c  Code  Gb  list.o [1]
LoadGradePriceTime      0x00002a78    0xac  Code  Gb  list.o [1]
LoadListHead            0x00004a48   0x7e8  Code  Gb  list.o [1]
LoadOilStopMessage      0x00002c58   0x128  Code  Gb  list.o [1]
LoadPowerDownTrans      0x0000a6d8   0x17c  Code  Gb  AscLog.o [1]
LoadPricelListFlg       0x00204f9b     0x1  Data  Lc  list.o [1]
LoadingData             0x00050094    0x10  Data  Lc  AscLog.o [1]
LogAdr                  0x00200000     0x4  Data  Lc  DbugUsartApp.o [1]
LogErr                  0x000500a4    0x10  Data  Lc  AscLog.o [1]
LogIndex                0x00204f66     0x1  Data  Lc  DbugUsartApp.o [1]
M1172Check              0x0000d41c    0x28  Code  Gb  m1172.o [1]
M1172_CaculateBaud      0x0000c968    0x64  Code  Lc  m1172.o [1]
M1172_Configure         0x0000c740    0x5c  Code  Gb  m1172.o [1]
M1172_ConfigureChannel  0x0000c9cc   0x13c  Code  Gb  m1172.o [1]
M1172_IsBusy            0x0000cb78    0x18  Code  Gb  m1172.o [1]
M1172_LoadToTxFIFO      0x0000cc6c   0x274  Code  Gb  m1172.o [1]
M1172_ReadReg           0x0000cc00    0x6c  Code  Gb  m1172.o [1]
M1172_SaveFromRxFIFO    0x0000cee0    0xd0  Code  Gb  m1172.o [1]
M1172_SendCommand       0x0000cb08    0x70  Code  Gb  m1172.o [1]
M1172_WriteReg          0x0000cb90    0x70  Code  Gb  m1172.o [1]
MACBuffer               0x00204414    0x80  Data  Gb  CRVaribles.o [1]
MACDataLen              0x00204f5f     0x1  Data  Gb  CRVaribles.o [1]
MakeOverRecord          0x0000b924   0x118  Code  Gb  record.o [1]
MatnPWD                 0x00050c20     0x2  Data  Gb  Keypad.o [1]
MsgID                   0x00204f2e     0x2  Data  Gb  Message.o [1]
MsgTimerDelayIndex      0x00204ebc     0x4  Data  Gb  Message.o [1]
NZN                     0x00050964     0x8  Data  Lc  DbugUsartApp.o [1]
NextMsgID               0x00204f30     0x2  Data  Gb  Message.o [1]
NextPumpMsgID           0x00204eb0     0x4  Data  Gb  DispPumpMsg.o [1]
NextScreenID            0x00204f92     0x1  Data  Gb  Screen.o [1]
NotUpLoadling           0x0000ad78    0x9c  Code  Gb  record.o [1]
NumChar                 0x0004eb18   0x250  Data  Lc  lcd.o [1]
OilMessage              0x00203888   0x108  Data  Gb  var.o [1]
OpenLcdLight            0x0000d6d0    0x88  Code  Gb  control.o [1]
OpenOrCloseLcdLight     0x000085b8    0xf0  Code  Gb  tools.o [1]
OverFuelFlg             0x00204f8e     0x1  Data  Gb  Pvar.o [1]
OverFuelMoney           0x00204eec     0x4  Data  Gb  Pvar.o [1]
OverFuelTimes           0x00204f8f     0x1  Data  Gb  Pvar.o [1]
OverFuelToTValue        0x00204ee8     0x4  Data  Gb  Pvar.o [1]
OverFuelTransFlg        0x00204ef8     0x4  Data  Gb  Pvar.o [1]
OverFuelValue           0x00204ee4     0x4  Data  Gb  Pvar.o [1]
OverPresetMoney         0x00204ef0     0x4  Data  Gb  Pvar.o [1]
OverPresetValue         0x00204ef4     0x4  Data  Gb  Pvar.o [1]
PC_ADDR                 0x00204fa1     0x1  Data  Gb  var.o [1]
PConfig                 0x00204ed8     0x4  Data  Gb  Pvar.o [1]
PCurGrade               0x00204f84     0x1  Data  Gb  Pvar.o [1]
PCurState               0x00204f83     0x1  Data  Gb  Pvar.o [1]
PDC_DisableRx           0x00010fe8     0xc  Code  Gb  usart.o [1]
PDC_DisableTx           0x00010ff4     0xc  Code  Gb  usart.o [1]
PD_TimeOut_CallBack     0x0004e8a4    0x10  Code  Gb  PowerDown.o [1]
PErrInfor               0x00204f81     0x1  Data  Gb  Pvar.o [1]
PGrade                  0x00204f87     0x1  Data  Gb  Pvar.o [1]
PGradeMax               0x00204f88     0x1  Data  Gb  Pvar.o [1]
PINInfo                 0x00204d6c    0x14  Data  Gb  CRVaribles.o [1]
PIO_Clear               0x0000dfc4    0x10  Code  Gb  tools.o [1]
PIO_Set                 0x0000dfb4    0x10  Code  Gb  tools.o [1]
PIO_SetInput            0x00017cb0    0x40  Code  Gb  init.o [1]
PIO_SetOutput           0x00017cf0    0x5c  Code  Gb  init.o [1]
PIO_SetPeripheralA      0x0000dfd4    0x28  Code  Gb  usart.o [1]
PIO_SetPeripheralB      0x00019904    0x28  Code  Gb  init.o [1]
PIT_Configure           0x000198f0    0x14  Code  Gb  init.o [1]
PIT_Start               0x000139fc    0x24  Code  Gb  init.o [1]
PMC_EnablePeripheral    0x0000dffc    0x38  Code  Gb  usart.o [1]
POINT                   0x00050bf0     0x4  Data  Lc  print.o [1]
POSUploadTrans          0x00204698    0x60  Data  Gb  define.o [1]
POS_CR_Buf              0x00203f90    0xf0  Data  Gb  define.o [1]
POS_P                   0x00204fa0     0x1  Data  Gb  var.o [1]
POS_TTC                 0x00050378     0xc  Data  Lc  DbugUsartApp.o [1]
PPreState               0x00204f82     0x1  Data  Gb  Pvar.o [1]
PRC                     0x0005097c     0x8  Data  Lc  DbugUsartApp.o [1]
PSAMCertificateGreyLockRetval
                        0x00204f42     0x2  Data  Gb  define.o [1]
PSAM_ASN                0x00050390     0xc  Data  Lc  DbugUsartApp.o [1]
PSAM_CAPDU_COMMAND_T0   0x00050c1a     0x2  Data  Gb  CRVaribles.o [1]
PSAM_Calc_MAC           0x0004cb50   0x4e0  Code  Gb  CRMemFunc.o [1]
PSAM_Certificate_Grey_Lock
                        0x00044328    0xd4  Code  Gb  PSAMCommand.o [1]
PSAM_Check_Validate     0x0003b034    0x98  Code  Gb  ICCardInProc2.o [1]
PSAM_Credit_Grey_Debit  0x000443fc   0x268  Code  Gb  PSAMCommand.o [1]
PSAM_DES_Encrypt0       0x000447ec   0x110  Code  Gb  PSAMCommand.o [1]
PSAM_DES_Encrypt1       0x000448fc    0xe4  Code  Gb  PSAMCommand.o [1]
PSAM_DES_Encrypt2       0x000449e0    0xe4  Code  Gb  PSAMCommand.o [1]
PSAM_Get_GMAC           0x00044664    0xd4  Code  Gb  PSAMCommand.o [1]
PSAM_Get_Response       0x00044ac8   0x164  Code  Gb  PSAMCommand.o [1]
PSAM_Init_DES_Encrypt   0x00044738    0xb4  Code  Gb  PSAMCommand.o [1]
PSAM_Init_Grey_Lock     0x00044144   0x1e4  Code  Gb  PSAMCommand.o [1]
PSAM_Proc               0x0004d718   0x2e0  Code  Gb  PSAMProc.o [1]
PSAM_Select_PSE         0x00043ec8    0xd4  Code  Gb  PSAMCommand.o [1]
PSAM_Select_Sinopec1    0x00043f9c    0xd4  Code  Gb  PSAMCommand.o [1]
PSAM_Select_Sinopec2    0x00044070    0xd4  Code  Gb  PSAMCommand.o [1]
PSAM_TAC                0x00050384     0xc  Data  Lc  DbugUsartApp.o [1]
PSAM_TID                0x0005039c     0xc  Data  Lc  DbugUsartApp.o [1]
PSAM_TTC                0x000503a8     0xc  Data  Lc  DbugUsartApp.o [1]
PSE                     0x000501c4    0x10  Data  Lc  PSAMCommand.o [1]
PTime                   0x00204e18     0x8  Data  Gb  Pvar.o [1]
PUMPVerifyData          0x00050bd8     0x4  Data  Lc  Pump.o [1]
PVersion                0x00204edc     0x4  Data  Gb  Pvar.o [1]
P_CTTC                  0x000506e4     0xc  Data  Lc  print.o [1]
P_CashAcceptorAmount    0x000506f0     0xc  Data  Lc  print.o [1]
P_CashAuthCode          0x000506d8     0xc  Data  Lc  print.o [1]
P_CashPOSAmount         0x000506fc     0xc  Data  Lc  print.o [1]
P_Reprint               0x0005006c    0x14  Data  Lc  print.o [1]
PageNumber              0x00204e98     0x4  Data  Lc  DbugUsartApp.o [1]
PatchData               0x00050864     0x8  Data  Gb  CRMemFunc.o [1]
PdRunning               0x00204f7e     0x1  Data  Gb  PowerDown.o [1]
Pdtimeoutflag           0x00204f7d     0x1  Data  Gb  PowerDown.o [1]
PosCastLeng             0x00204f36     0x2  Data  Gb  PosVar.o [1]
PosCrc                  0x00204f3c     0x2  Data  Lc  PosVar.o [1]
PosDataLen              0x00204f3a     0x2  Data  Lc  PosVar.o [1]
PosError                0x0004f3d8   0x104  Data  Gb  var.o [1]
PosFlg                  0x00204fa2     0x1  Data  Gb  var.o [1]
PosLen                  0x00204f38     0x2  Data  Lc  PosVar.o [1]
PosMessage_AskInfo      0x00040b28   0x2f0  Code  Gb  Arm70_POS_funtion.o [1]
PosMessage_AskTotal     0x00040980   0x188  Code  Gb  Arm70_POS_funtion.o [1]
PosMessage_BWL          0x00040fb8    0xa8  Code  Gb  Arm70_POS_funtion.o [1]
PosMessage_Data         0x00041594   0x42c  Code  Gb  Arm70_POS_funtion.o [1]
PosMessage_DataLeng     0x000403d0   0x4f8  Code  Gb  Arm70_POS_funtion.o [1]
PosMessage_GrayRecord   0x000408cc    0x94  Code  Gb  Arm70_POS_funtion.o [1]
PosMessage_Polling      0x0003ff8c   0x444  Code  Gb  Arm70_POS_funtion.o [1]
PosMessage_ReadPOSTrade
                        0x00041ca0   0x154  Code  Gb  Arm70_POS_funtion.o [1]
PosMessage_Trade_TTC    0x000419cc   0x2c8  Code  Gb  Arm70_POS_funtion.o [1]
PosOnline               0x00204fa3     0x1  Data  Gb  var.o [1]
PosQueListCount         0x00204f7a     0x1  Data  Gb  PosVar.o [1]
PosReadRecordFlg        0x00204f77     0x1  Data  Gb  PosVar.o [1]
PosSeg                  0x00204e10     0x8  Data  Gb  PosVar.o [1]
PosSndBuf               0x00203d90   0x100  Data  Gb  PosVar.o [1]
PosTmp                  0x00204f7c     0x1  Data  Lc  PosVar.o [1]
PowenOnDelay            0x00011008    0x10  Code  Gb  init.o [1]
PowerDelay              0x000084fc    0x10  Code  Gb  tools.o [1]
PowerDelayFlg           0x00204f9c     0x1  Data  Lc  tools.o [1]
PowerDown               0x00203760   0x128  Data  Gb  Pdprotect.o [1]
PowerDownCheck          0x000087b0    0x7c  Code  Gb  tools.o [1]
PowerDownDispose        0x0000850c    0xac  Code  Gb  tools.o [1]
PowerDownFlag           0x00204f5b     0x1  Data  Gb  CRVaribles.o [1]
PowerDownFlg            0x00204fa4     0x1  Data  Gb  var.o [1]
PowerDownSaveReadTTC    0x00204f10     0x4  Data  Gb  var.o [1]
PowerDown_TimeOut       0x00204ecc     0x4  Data  Gb  PowerDown.o [1]
PowerOnDelay            0x00009590    0x10  Code  Gb  AscLog.o [1]
PowerOnDelayFlg         0x00204f44     0x1  Data  Lc  AscLog.o [1]
PresetDisplay           0x0000fd54   0x830  Code  Gb  lcd.o [1]
PresetDotFlag           0x00204f71     0x1  Data  Gb  KeyMask.o [1]
PriceUpdateFlag         0x00204f72     0x1  Data  Gb  KeyMask.o [1]
PriceUpdateFlg          0x00200006     0x2  Data  Gb  var.o [1]
PriceUpdateTime         0x00204e50     0x8  Data  Gb  var.o [1]
PrintBusy               0x00204fa9     0x1  Data  Gb  var.o [1]
PrintComplete           0x0001d47c    0x10  Code  Gb  print.o [1]
PrintFlag               0x00204f96     0x1  Data  Gb  SocialCard.o [1]
PrintProcess            0x00033af8    0x4c  Code  Gb  CRPrint.o [1]
PrintTrans              0x002026e8   0x360  Data  Gb  var.o [1]
ProcExchange            0x002030a4   0x1e4  Data  Gb  define.o [1]
ProcStatus              0x00204a0c    0x2c  Data  Gb  define.o [1]
ProcTimes               0x00204e60     0x4  Data  Gb  CRVaribles.o [1]
PumpCMD_Recevice        0x00037824   0x8d4  Code  Gb  Pcomm.o [1]
PumpCOMTimeOut          0x00204f40     0x2  Data  Gb  Pvar.o [1]
PumpCommFlg             0x00204f89     0x1  Data  Gb  Pvar.o [1]
PumpCrc                 0x00204f34     0x2  Data  Lc  Pcomm.o [1]
PumpCrc16               0x00037770    0xb4  Code  Gb  Pcomm.o [1]
PumpCurTask             0x00204f86     0x1  Data  Gb  Pvar.o [1]
PumpDataLen             0x00204f75     0x1  Data  Lc  Pcomm.o [1]
PumpGetCurPrice         0x00034154    0x6c  Code  Gb  Pump.o [1]
PumpGrade               0x00204f7f     0x1  Data  Lc  Pump.o [1]
PumpLen                 0x00204f32     0x2  Data  Lc  Pcomm.o [1]
PumpLen                 0x00204f3e     0x2  Data  Lc  Pump.o [1]
PumpMsgID               0x00204eac     0x4  Data  Gb  DispPumpMsg.o [1]
PumpOnlineProcess       0x00037174   0x384  Code  Gb  Pump.o [1]
PumpOnlineflg           0x00204f80     0x1  Data  Lc  Pump.o [1]
PumpPriceBuf            0x00204e20     0x8  Data  Gb  define.o [1]
PumpPrinterBuf          0x00204514    0x64  Data  Gb  define.o [1]
PumpProcess             0x0003769c    0x78  Code  Gb  Pump.o [1]
PumpRevFlg              0x00204f8a     0x1  Data  Gb  Pvar.o [1]
PumpSendTimeOut         0x00204ee0     0x4  Data  Gb  Pvar.o [1]
PumpStateCheck          0x00036ce0   0x488  Code  Gb  Pump.o [1]
PumpTask                0x000369f4   0x144  Code  Gb  Pump.o [1]
PumpTmp                 0x00204f74     0x1  Data  Lc  Pcomm.o [1]
PumpVoiceBuf            0x00204d80    0x14  Data  Gb  define.o [1]
Pump_CR_Buf             0x00204494    0x80  Data  Gb  define.o [1]
Pump_ID                 0x00204f8c     0x1  Data  Gb  Pvar.o [1]
Pump_Receive_BUF        0x00204150    0xd0  Data  Gb  Pvar.o [1]
Pump_Receive_Data       0x00204220    0xd0  Data  Gb  Pvar.o [1]
Pump_Send_BUF           0x00204080    0xd0  Data  Gb  Pvar.o [1]
Pump_Time               0x000381f4    0x94  Code  Gb  Pcomm.o [1]
PwoerDownProcess        0x0004e8b4   0x14c  Code  Gb  PowerDown.o [1]
Que_IsFull              0x0000c6d4    0x24  Code  Gb  m1172.o [1]
READ                    0x00007f38   0x144  Code  Gb  tools.o [1]
RECORD                  0x00204578    0x60  Data  Gb  CRVaribles.o [1]
RECORD_ERR              0x00050588     0xc  Data  Lc  lcd.o [1]
RFU                     0x00050994     0x8  Data  Lc  DbugUsartApp.o [1]
ReBuildListProtected    0x00002d80    0x60  Code  Gb  list.o [1]
ReBuildLogProtected     0x00009f04   0x29c  Code  Gb  AscLog.o [1]
ReBuildRecordProtected  0x0000b364   0x50c  Code  Gb  record.o [1]
ReadCRConfigFlash       0x0001ebec    0x24  Code  Gb  CRMemCopy.o [1]
ReadCardConfig          0x0000d4a0    0x30  Code  Gb  control.o [1]
ReadCardStatus          0x0000d46c    0x34  Code  Gb  control.o [1]
ReadCrConfig            0x0000a204   0x11c  Code  Gb  AscLog.o [1]
ReadFromIIC             0x0000c2d8   0x130  Code  Gb  at24.o [1]
ReadFromQue             0x0000c67c    0x58  Code  Gb  m1172.o [1]
ReadFromSpiUsart        0x0000d0c0    0x94  Code  Gb  m1172.o [1]
ReadFromUsart           0x0000c62c     0xc  Code  Gb  usart.o [1]
ReadLcdLeftState        0x0000e204    0x20  Code  Lc  lcd.o [1]
ReadLcdRightState       0x0000e224    0x20  Code  Lc  lcd.o [1]
ReadOpenOrCloseLcdLightTime
                        0x0000a410    0xdc  Code  Gb  AscLog.o [1]
ReadPDBuffer            0x00046ba0   0x1ec  Code  Gb  Journal.o [1]
ReadPriceFlgFromDataFlash
                        0x00007150    0x58  Code  Gb  list.o [1]
ReadPriceReceviceFlg    0x00007204    0x6c  Code  Gb  list.o [1]
ReadPumpOnlineFlg       0x000341e0    0x20  Code  Gb  Pump.o [1]
ReadRecognizeFlag       0x0001f340    0x8c  Code  Gb  SocialCard.o [1]
ReadRecord              0x0000b870    0xb4  Code  Gb  record.o [1]
ReadRecordAdr           0x000322d4    0x54  Code  Gb  DbugUsartApp.o [1]
ReadSystimer            0x000084b8    0x44  Code  Gb  tools.o [1]
ReadTTCInc              0x00010d34    0x54  Code  Gb  record.o [1]
ReadTicketHead          0x00019ec0    0xe8  Code  Gb  print.o [1]
ReadTotals              0x0003cca8   0x160  Code  Gb  CRSFunc.o [1]
Read_CHECK_TIME         0x00035f3c    0xcc  Code  Gb  Pump.o [1]
Read_CLEAR_OFFLINE_TRANS
                        0x00035d28   0x120  Code  Gb  Pump.o [1]
Read_GET_OFFLINE_TRANS  0x00035bb0   0x164  Code  Gb  Pump.o [1]
Read_GET_REAL_DATA      0x000354b8    0xd0  Code  Gb  Pump.o [1]
Read_GET_TOT            0x000357f8   0x108  Code  Gb  Pump.o [1]
Read_GET_TRANS          0x00035590   0x190  Code  Gb  Pump.o [1]
Read_PPU_CHECK          0x000359b0   0x1ec  Code  Gb  Pump.o [1]
Read_PPU_NEW            0x00035900    0xb0  Code  Gb  Pump.o [1]
Read_PRE_AUTH           0x00035348   0x16c  Code  Gb  Pump.o [1]
Read_PRINT_DATA         0x000364b0    0x80  Code  Gb  Pump.o [1]
Read_PUMP_IDENTIFY      0x00035180    0xa4  Code  Gb  Pump.o [1]
Read_PUMP_ROUNDING      0x00036310    0x78  Code  Gb  Pump.o [1]
Read_RESTART_PUMP       0x00036294    0x78  Code  Gb  Pump.o [1]
Read_STOP_PUMP          0x00035e58    0xcc  Code  Gb  Pump.o [1]
Read_TRANSMIT_DATA      0x000365bc    0x94  Code  Gb  Pump.o [1]
Read_UPLOAD_CONFIG      0x0003600c   0x124  Code  Gb  Pump.o [1]
Read_UPLOAD_CUR_TRANS   0x00035720    0xd8  Code  Gb  Pump.o [1]
Read_UPLOAD_ERR_NO      0x0003613c    0xa0  Code  Gb  Pump.o [1]
Read_UPLOAD_VERSION     0x000361e8    0xa0  Code  Gb  Pump.o [1]
Read_VERIFY_PUMP        0x00035228   0x108  Code  Gb  Pump.o [1]
Read_VOICE_DATA         0x0003641c    0x94  Code  Gb  Pump.o [1]
Read_VOLUME_MODIFY      0x0003638c    0x90  Code  Gb  Pump.o [1]
ReceivedFlag            0x00204e68     0x4  Data  Gb  CRVaribles.o [1]
RecordAdr               0x00204e90     0x4  Data  Lc  DbugUsartApp.o [1]
RecordComBcdToAscii     0x000323d4    0x64  Code  Gb  DbugUsartApp.o [1]
RecordIndex             0x00204f65     0x1  Data  Lc  DbugUsartApp.o [1]
RecordLast              0x00204638    0x60  Data  Gb  PosVar.o [1]
RecordListNumber        0x00204f6b     0x1  Data  Gb  ICCardCommand.o [1]
RecvBuffer              0x00203990   0x100  Data  Gb  CRVaribles.o [1]
RecvBufferLen           0x00204e64     0x4  Data  Gb  CRVaribles.o [1]
RecvResponseCardReader  0x00021b1c    0x48  Code  Gb  CRCommand.o [1]
Region$$Table$$Base     0x0004fa30           --   Gb  - Linker created -
Region$$Table$$Limit    0x0004fa54           --   Gb  - Linker created -
RepeatAll               0x0002f150    0x10  Code  Gb  DbugUsartApp.o [1]
ReqDownloadList         0x0004127c   0x104  Code  Gb  Arm70_POS_funtion.o [1]
ReqPosData              0x00041388   0x1e0  Code  Gb  Arm70_POS_funtion.o [1]
ReqPosQueBWL            0x00040e20    0xc8  Code  Gb  Arm70_POS_funtion.o [1]
ReqPosQueGreyList       0x00040eec    0xc8  Code  Gb  Arm70_POS_funtion.o [1]
ResetAllTimer           0x00009050    0x48  Code  Gb  tc.o [1]
ResetCardReader         0x00014b44   0x524  Code  Gb  CardDrive.o [1]
ResetDefaultInfo        0x00022a9c    0x38  Code  Gb  Message.o [1]
ResetDownloadStatus     0x0003fa5c    0x60  Code  Gb  Arm70_POS_funtion.o [1]
ResetTimer              0x00008c5c    0x70  Code  Gb  tc.o [1]
ResetTradeFlg           0x0003fabc    0x70  Code  Gb  Arm70_POS_funtion.o [1]
Reset_Adr               0x00206870     0x4  Data  Gb  var.o [1]
RespCMDOffset           0x00204f47     0x1  Data  Gb  CRVaribles.o [1]
RespDATOffset           0x00204f48     0x1  Data  Gb  CRVaribles.o [1]
RevDataDispose          0x00013eb8   0x648  Code  Gb  CardDrive.o [1]
RevDataResolve          0x00036b40   0x16c  Code  Gb  Pump.o [1]
Rev_Data_Check          0x0003756c   0x130  Code  Gb  Pump.o [1]
RoundOn                 0x00204f6a     0x1  Data  Gb  Display.o [1]
Round_Mod               0x00043494    0x98  Code  Gb  CRPumpCall.o [1]
Row1                    0x0004fcb4    0x1c  Data  Lc  print.o [1]
Row10                   0x00050648     0xc  Data  Lc  print.o [1]
Row10e                  0x0004f8ec    0x38  Data  Lc  print.o [1]
Row11                   0x00050654     0xc  Data  Lc  print.o [1]
Row11e                  0x000506c0     0xc  Data  Lc  print.o [1]
Row12                   0x00050b4c     0x8  Data  Lc  print.o [1]
Row13                   0x00050254    0x10  Data  Lc  print.o [1]
Row14                   0x00050264    0x10  Data  Lc  print.o [1]
Row15                   0x00050b54     0x8  Data  Lc  print.o [1]
Row16                   0x00050b5c     0x8  Data  Lc  print.o [1]
Row17                   0x00050274    0x10  Data  Lc  print.o [1]
Row18                   0x00050660     0xc  Data  Lc  print.o [1]
Row19                   0x00050b64     0x8  Data  Lc  print.o [1]
Row2                    0x000505e8     0xc  Data  Lc  print.o [1]
Row20                   0x00050b6c     0x8  Data  Lc  print.o [1]
Row21                   0x00050058    0x14  Data  Lc  print.o [1]
Row22                   0x0005066c     0xc  Data  Lc  print.o [1]
Row23                   0x00050678     0xc  Data  Lc  print.o [1]
Row24                   0x00050b74     0x8  Data  Lc  print.o [1]
Row25                   0x00050684     0xc  Data  Lc  print.o [1]
Row26                   0x00050690     0xc  Data  Lc  print.o [1]
Row27                   0x0005069c     0xc  Data  Lc  print.o [1]
Row28                   0x000506a8     0xc  Data  Lc  print.o [1]
Row28e                  0x0004f83c    0x5c  Data  Lc  print.o [1]
Row29                   0x000506b4     0xc  Data  Lc  print.o [1]
Row3                    0x000505f4     0xc  Data  Lc  print.o [1]
Row30e                  0x0004f954    0x28  Data  Lc  print.o [1]
Row4                    0x00050600     0xc  Data  Lc  print.o [1]
Row5                    0x0005060c     0xc  Data  Lc  print.o [1]
Row6                    0x00050618     0xc  Data  Lc  print.o [1]
Row7                    0x00050624     0xc  Data  Lc  print.o [1]
Row8                    0x00050630     0xc  Data  Lc  print.o [1]
Row9                    0x0005063c     0xc  Data  Lc  print.o [1]
Row9e                   0x0004f924    0x30  Data  Lc  print.o [1]
Rs485Adr                0x00204f9e     0x1  Data  Gb  var.o [1]
RunLed                  0x0000d5a0    0x40  Code  Gb  control.o [1]
SB                      0x00050c2a          Data  Gb  bwt_init3c.o [5]
SCH_GetNextPrice        0x0004efa0    0x6c  Code  Gb  Schedule.o [1]
SINOPEC_APP1            0x000501d4    0x10  Data  Lc  PSAMCommand.o [1]
SINOPEC_APP2            0x000501e4    0x10  Data  Lc  PSAMCommand.o [1]
SINOPEC_APP_AID         0x0005045c     0xc  Data  Lc  ICCardCommand.o [1]
SMC_SetCsr              0x0001992c    0xc8  Code  Gb  init.o [1]
SOCIAL_APP_AID          0x000504d4     0xc  Data  Lc  SocialCard.o [1]
SPID_Configure          0x000073c8    0x7c  Code  Gb  spi.o [1]
SPID_ConfigureCS        0x00007444    0x24  Code  Gb  spi.o [1]
SPID_IsBusy             0x00007468    0x20  Code  Gb  spi.o [1]
SPID_SendCommand        0x00007488    0xd8  Code  Gb  spi.o [1]
SPI_Handler             0x00007338    0x90  Code  Gb  spi.o [1]
SVC_STACK$$Base         0x00205fb0           --   Gb  - Linker created -
SVC_STACK$$Limit        0x002063b0           --   Gb  - Linker created -
SamComDispose           0x00015e34   0x198  Code  Gb  CardDrive.o [1]
SaveCRConfigFlash       0x0001ebd4    0x18  Code  Gb  CRMemCopy.o [1]
SaveConfig              0x00009da8   0x15c  Code  Gb  AscLog.o [1]
SaveDispTotal           0x0003ce40   0x104  Code  Gb  CRSFunc.o [1]
SaveICCardData          0x0003b73c    0xac  Code  Gb  ICCardInProc2.o [1]
SaveLogOnTotals         0x0003ce08    0x2c  Code  Gb  CRSFunc.o [1]
SavePowerDownTrans      0x0000a5a8   0x130  Code  Gb  AscLog.o [1]
SavePumpCallData        0x0004352c   0x1ac  Code  Gb  CRPumpCall.o [1]
SaveRecord              0x00046d8c   0x248  Code  Gb  Journal.o [1]
SaveRecordFailFlag      0x00204f4c     0x1  Data  Gb  CRVaribles.o [1]
SaveTotals              0x0003cb18   0x160  Code  Gb  CRSFunc.o [1]
Save_ICCard_State       0x0003b7e8   0x220  Code  Gb  ICCardInProc2.o [1]
ScanCRTask              0x0003665c   0x398  Code  Gb  Pump.o [1]
ScanKey                 0x00019a7c   0x1cc  Code  Gb  key.o [1]
ScheduleProcess         0x0004eec8    0xd8  Code  Gb  Schedule.o [1]
ScreenID                0x00204f91     0x1  Data  Gb  Screen.o [1]
ScreenList              0x000486d8   0xf18  Data  Gb  Screen.o [1]
ScrollDownSelect        0x00025e5c   0x1a8  Code  Gb  Keypad2.o [1]
ScrollUpSelect          0x00025cb4   0x1a4  Code  Gb  Keypad2.o [1]
SendBuffer              0x00203a90   0x100  Data  Gb  CRVaribles.o [1]
SendCommandCardReader   0x00021ae4    0x38  Code  Gb  CRCommand.o [1]
SendCountToPos          0x00204f78     0x1  Data  Gb  PosVar.o [1]
SendFlg                 0x0020000c     0x1  Data  Lc  DbugUsartApp.o [1]
SendToAt83c26           0x0001508c   0x51c  Code  Gb  CardDrive.o [1]
Send_Data_PUMP          0x000380f8    0xfc  Code  Gb  Pcomm.o [1]
SentFlag                0x00204f4d     0x1  Data  Gb  CRVaribles.o [1]
Serial0                 0x002049ac    0x30  Data  Gb  var.o [1]
Serial1                 0x002049dc    0x30  Data  Gb  var.o [1]
SetCardOut              0x0000d4e0    0x34  Code  Gb  control.o [1]
SetCardOut1             0x0000d4d0    0x10  Code  Gb  control.o [1]
SetCrcError             0x000091cc    0x3c  Code  Gb  memoryCheck.o [1]
SetDispDefaultInfo      0x00022a5c    0x28  Code  Gb  Message.o [1]
SetDispPumpMsg          0x000382f0   0x39c  Code  Gb  DispPumpMsg.o [1]
SetLcdLightCloseTime    0x0002f120    0x30  Code  Gb  Keypad.o [1]
SetLcdLightOpenTime     0x0002f0f0    0x30  Code  Gb  Keypad.o [1]
SetListHead             0x00006e20    0x7c  Code  Gb  list.o [1]
SetNoPrint              0x0000ddf0    0x10  Code  Gb  control.o [1]
SetPosOffline           0x00049fd8    0x64  Code  Gb  PosVar.o [1]
SetPresetValue          0x00042fe8   0x4ac  Code  Gb  CRPumpCall.o [1]
SetPriceReceviceFlg     0x000071a8    0x5c  Code  Gb  list.o [1]
SetPriceUpdateFlg       0x000070b8    0x44  Code  Gb  list.o [1]
SetPrintIt              0x00026770    0x34  Code  Gb  Keypad2.o [1]
SetPumpOffline          0x000341c0    0x10  Code  Gb  Pump.o [1]
SetPumpOnline           0x000341d0    0x10  Code  Gb  Pump.o [1]
SetRecognizeFlag        0x0001f2c4    0x7c  Code  Gb  SocialCard.o [1]
Set_Next_Command        0x000228e8    0x48  Code  Gb  CRCommand.o [1]
ShortEndianConvert      0x00008098    0x20  Code  Gb  tools.o [1]
ShortIntToCharCopy      0x0001e300    0x34  Code  Gb  CRMemCopy.o [1]
SinopecRevBuf           0x00203e90   0x100  Data  Gb  var.o [1]
SinopecToResolve        0x000495f0   0x9e8  Code  Gb  PosVar.o [1]
SndComplete             0x000146b8    0x90  Code  Gb  CardDrive.o [1]
SndDataAllUsart         0x00033410   0x254  Code  Gb  DbugUsartApp.o [1]
SndLogToDbugUsart       0x000331f4   0x210  Code  Gb  DbugUsartApp.o [1]
SndPosLastTrade         0x00041064    0xfc  Code  Gb  Arm70_POS_funtion.o [1]
SndPosRealMessage       0x0003fb2c   0x358  Code  Gb  Arm70_POS_funtion.o [1]
SndPosTrade             0x00041168    0xfc  Code  Gb  Arm70_POS_funtion.o [1]
SndPosVerifyMessage     0x0003fe84   0x104  Code  Gb  Arm70_POS_funtion.o [1]
SndRecordToDbugUsart    0x00032438   0xda4  Code  Gb  DbugUsartApp.o [1]
SndToUsart7816          0x00015fd0   0x108  Code  Gb  CardDrive.o [1]
SndTransTmr             0x00204ec4     0x4  Data  Gb  PosVar.o [1]
SpiUsart                0x0000d154   0x2c8  Code  Gb  m1172.o [1]
SpiUsartConfigure       0x0000c79c   0x1cc  Code  Gb  m1172.o [1]
SpringOutCardTimes      0x00204f49     0x1  Data  Gb  CRVaribles.o [1]
StartC26_dcdcA          0x00016a68    0x20  Code  Gb  at83c26_app.o [1]
StartC26_dcdcB          0x00016ac0    0x24  Code  Gb  at83c26_app.o [1]
StartCardSamPower       0x000170fc   0x528  Code  Gb  at83c26_app.o [1]
StopC26_dcdcA           0x00016a88    0x38  Code  Gb  at83c26_app.o [1]
StopDefaultInfo         0x00022a84    0x18  Code  Gb  Message.o [1]
StopTimer               0x00008ccc    0x70  Code  Gb  tc.o [1]
SysBCDTime              0x00204e48     0x8  Data  Gb  var.o [1]
SysTime                 0x00204e40     0x8  Data  Gb  var.o [1]
SysTimer                0x0000db70   0x280  Code  Gb  control.o [1]
Sys_irq                 0x0004c384   0x12c  Code  Gb  f_irq.o [1]
TAC                     0x0005093c     0x8  Data  Lc  DbugUsartApp.o [1]
TC_Configure            0x00019864    0x1c  Code  Gb  init.o [1]
TC_RCConfigure          0x00019880    0x70  Code  Gb  init.o [1]
TC_Start                0x000139f0     0xc  Code  Gb  init.o [1]
TIME                    0x00050914     0x8  Data  Lc  DbugUsartApp.o [1]
TRANS_DAY               0x00050bfc     0x4  Data  Lc  print.o [1]
TRANS_MONTH             0x00050bf8     0x4  Data  Lc  print.o [1]
TRANS_YEAR              0x00050bf4     0x4  Data  Lc  print.o [1]
TRINP                   0x00202a48   0x254  Data  Gb  CRVaribles.o [1]
TWID_Initialize         0x00017ddc    0x18  Code  Gb  twi.o [1]
TWID_IsBusy             0x00010e60    0x20  Code  Gb  at83.o [1]
TWI_Configure           0x00017d4c    0x90  Code  Gb  init.o [1]
TWI_GetRXRDY            0x00010f50    0x14  Code  Gb  at83.o [1]
TWI_GetTXRDY            0x00010edc    0x14  Code  Gb  at83.o [1]
TWI_ReadByte            0x00010f64     0xc  Code  Gb  at83.o [1]
TWI_RecvCallBack        0x00021c3c    0x90  Code  Gb  CRCommand.o [1]
TWI_StartRead           0x00010f10    0x40  Code  Gb  at83.o [1]
TWI_StartWrite          0x00010e80    0x50  Code  Gb  at83.o [1]
TWI_Stop                0x00010ed0     0xc  Code  Gb  at83.o [1]
TWI_TransferComplete    0x00010f00    0x10  Code  Gb  at83.o [1]
TWI_WriteByte           0x00010ef0    0x10  Code  Gb  at83.o [1]
T_MAC                   0x0005099c     0x8  Data  Lc  DbugUsartApp.o [1]
T_TYPE                  0x0005090c     0x8  Data  Lc  DbugUsartApp.o [1]
TempGrade               0x0020000d     0x1  Data  Gb  Pvar.o [1]
TicketHeadBuf           0x002022e8   0x400  Data  Lc  DbugUsartApp.o [1]
TicketHeadLen           0x00204f69     0x1  Data  Lc  DbugUsartApp.o [1]
Time1Tmr                0x002046f8    0x60  Data  Lc  tc.o [1]
TimeTmr                 0x00201868   0x600  Data  Gb  tc.o [1]
TimesAmountTotalLimit   0x00042dec    0x54  Code  Gb  CRPumpCall.o [1]
TransTTC                0x00204e7c     0x4  Data  Gb  CRVaribles.o [1]
TrimDecimal             0x00027a14   0x13c  Code  Gb  Keypad2.o [1]
TrimMACData             0x0004d030    0xd4  Code  Gb  CRMemFunc.o [1]
TwiTimeOut              0x00017df4    0x10  Code  Gb  at83.o [1]
UND_STACK$$Base         0x002067f0           --   Gb  - Linker created -
UND_STACK$$Limit        0x00206830           --   Gb  - Linker created -
UNIT                    0x0005094c     0x8  Data  Lc  DbugUsartApp.o [1]
UNITS                   0x00050bbc     0x8  Data  Lc  print.o [1]
USART_ConfigStruct      0x0000c40c     0x8  Code  Gb  usart.o [1]
USART_Configure         0x00010f70    0x78  Code  Gb  usart.o [1]
US_EnableIt             0x00011000     0x8  Code  Gb  usart.o [1]
Uart1_RecvCallBack      0x00021b74    0xc8  Code  Gb  CRCommand.o [1]
Uart1_SendCallBack      0x00021b64    0x10  Code  Gb  CRCommand.o [1]
UpdateDispTotal_PowerOn
                        0x0004bf90   0x248  Code  Gb  CRPowerOn.o [1]
UpdateInversedDisplay   0x000267e0   0x170  Code  Gb  Keypad2.o [1]
UpdateSoftwareCloseAIC  0x0000882c    0x20  Code  Gb  tools.o [1]
UploadPWD               0x00050a5c     0x8  Data  Gb  Keypad.o [1]
Usart_InitReceviceBack  0x000229e4     0x8  Code  Gb  usart.o [1]
Usart_InitSendBack      0x000229dc     0x8  Code  Gb  usart.o [1]
VER                     0x0005095c     0x8  Data  Lc  DbugUsartApp.o [1]
VOLAPP_APP_AID          0x000509ec     0x8  Data  Lc  ICCardCommand.o [1]
VOL_C                   0x00050be8     0x4  Data  Lc  print.o [1]
V_TOT                   0x0005098c     0x8  Data  Lc  DbugUsartApp.o [1]
V_VOL                   0x00050974     0x8  Data  Lc  DbugUsartApp.o [1]
VerifyPumpData          0x00204ed0     0x4  Data  Lc  Pump.o [1]
VerifyTimeData          0x00204ed4     0x4  Data  Lc  Pump.o [1]
VoiceProcess            0x0004e018   0x564  Code  Gb  Voice.o [1]
WLLink                  0x00204904    0x40  Data  Gb  var.o [1]
WRITE                   0x00007d98   0x1a0  Code  Gb  tools.o [1]
WatchDog                0x000080b8    0x18  Code  Gb  tools.o [1]
Welcome                 0x00050594     0xc  Data  Lc  lcd.o [1]
WhiteListHead           0x00204b0c    0x1c  Data  Lc  list.o [1]
WriteBlackCardLog       0x0003ad5c    0x9c  Code  Gb  ICCardInProc.o [1]
WriteCRAuthPumpLog      0x00043afc   0x15c  Code  Gb  CRPumpCall.o [1]
WriteCRFuellingErrorLog
                        0x00047cf8   0x248  Code  Gb  CRPumpBusy.o [1]
WriteCRPumpCallLog      0x000438e8   0x208  Code  Gb  CRPumpCall.o [1]
WriteCRPumpEOTLog       0x00047f40    0x5c  Code  Gb  CRPumpBusy.o [1]
WriteCRPumpLastTransLog
                        0x000481d8   0x188  Code  Gb  CRPumpBusy.o [1]
WriteCrConfig           0x0000a320    0xec  Code  Gb  AscLog.o [1]
WriteDataFlashErr       0x000504c8     0xc  Data  Gb  PosVar.o [1]
WriteDebitLog           0x0004ba8c    0x5c  Code  Gb  CRPumpEOT.o [1]
WriteDriveLog           0x0000aa58   0x2ec  Code  Gb  AscLog.o [1]
WriteDriveLog_Reset     0x0000a8a0   0x1a4  Code  Gb  AscLog.o [1]
WriteGcodeData          0x00033764    0xf4  Code  Gb  DbugUsartApp.o [1]
WriteList               0x00000940  0x2138  Code  Gb  list.o [1]
WriteListHead           0x00004570   0x4c4  Code  Gb  list.o [1]
WriteListLength         0x000068f8    0xdc  Code  Gb  list.o [1]
WriteListNumber         0x00204f04     0x4  Data  Lc  list.o [1]
WriteLog                0x0001ee08   0x1c8  Code  Gb  WriteLog.o [1]
WriteOfflineLog         0x0003d2b8   0x234  Code  Gb  CRSFunc.o [1]
WriteOpenOrCloseLcdLightTime
                        0x0000a4f8    0xac  Code  Gb  AscLog.o [1]
WritePdLog              0x0004ea00    0xec  Code  Gb  PowerDown.o [1]
WritePriceFlgToDataFlash
                        0x000070fc    0x54  Code  Gb  list.o [1]
WritePumpLastTransLog   0x00047fc4   0x204  Code  Gb  CRPumpBusy.o [1]
WriteRecord             0x0000ae14   0x1b4  Code  Gb  record.o [1]
WriteRecordLog          0x00046fdc   0x114  Code  Gb  Journal.o [1]
WriteTTCDec             0x00009260    0x30  Code  Gb  list.o [1]
WriteTTCInc             0x0001edd8    0x30  Code  Gb  ICCardProc.o [1]
WriteTTCLog             0x0001e5a4    0xe8  Code  Gb  CRMemCopy.o [1]
WriteTicketHeadAndSndResult
                        0x0003366c    0xec  Code  Gb  DbugUsartApp.o [1]
WriteToCardSam          0x00014754   0x3d0  Code  Gb  CardDrive.o [1]
WriteToDBUG_USART       0x00009180    0x4c  Code  Gb  DbugUsart.o [1]
WriteToIIC              0x0000bd54   0x584  Code  Gb  at24.o [1]
WriteToQue              0x0000c638    0x44  Code  Gb  m1172.o [1]
WriteToSpiUsart         0x0000cfb0   0x110  Code  Gb  m1172.o [1]
WriteToUsart            0x0000c414   0x1f4  Code  Gb  usart.o [1]
WriteTotalLog           0x0003cf54   0x360  Code  Gb  CRSFunc.o [1]
Write_CHECK_TIME        0x00034ca8    0x70  Code  Gb  Pump.o [1]
Write_CLEAR_OFFLINE_TRANS
                        0x00034b38    0xa4  Code  Gb  Pump.o [1]
Write_GET_OFFLINE_TRANS
                        0x00034a94    0xa4  Code  Gb  Pump.o [1]
Write_GET_REAL_DATA     0x00034468   0x130  Code  Gb  Pump.o [1]
Write_GET_TOT           0x000348a8    0x80  Code  Gb  Pump.o [1]
Write_GET_TRANS         0x00034598   0x278  Code  Gb  Pump.o [1]
Write_General_Answer_POLL
                        0x00034254    0x9c  Code  Gb  Pump.o [1]
Write_PPU_CHECK         0x000349f0    0xa4  Code  Gb  Pump.o [1]
Write_PPU_NEW           0x00034928    0xc8  Code  Gb  Pump.o [1]
Write_PRE_AUTH          0x000342f0   0x178  Code  Gb  Pump.o [1]
Write_PRINT_DATA        0x00035050    0x88  Code  Gb  Pump.o [1]
Write_PUMP_IDENTIFY     0x000350e4    0x9c  Code  Gb  Pump.o [1]
Write_PUMP_ROUNDING     0x00034ee4    0x80  Code  Gb  Pump.o [1]
Write_RESTART_PUMP      0x00034e7c    0x68  Code  Gb  Pump.o [1]
Write_STOP_PUMP         0x00034bdc    0xcc  Code  Gb  Pump.o [1]
Write_UPLOAD_CONFIG     0x00034d18    0x70  Code  Gb  Pump.o [1]
Write_UPLOAD_CUR_TRANS  0x00034810    0x98  Code  Gb  Pump.o [1]
Write_UPLOAD_ERR_NO     0x00034d88    0x70  Code  Gb  Pump.o [1]
Write_UPLOAD_VERSION    0x00034df8    0x84  Code  Gb  Pump.o [1]
Write_VERIFY_PUMP       0x00034200    0x54  Code  Gb  Pump.o [1]
Write_VOICE_DATA        0x00034fd4    0x64  Code  Gb  Pump.o [1]
Write_VOLUME_MODIFY     0x00034f78    0x54  Code  Gb  Pump.o [1]
YEAR                    0x0004fcec    0x1c  Data  Gb  var.o [1]
YUAN                    0x00050bec     0x4  Data  Lc  print.o [1]
ZeroVolumeFlag          0x00204f90     0x1  Data  Gb  Pvar.o [1]
ZimoCrc                 0x00050c26     0x2  Data  Lc  init.o [1]
_GenldFull              0x00013550   0x3f0  Code  Lc  xprintffull.o [3]
_LdtobFull              0x00012dd8   0x76c  Code  Lc  xprintffull.o [3]
_LitobFull              0x00012c44   0x194  Code  Lc  xprintffull.o [3]
_PrintfFull             0x000123c4   0x880  Code  Gb  xprintffull.o [3]
_PutcharsFull           0x00013940    0x60  Code  Lc  xprintffull.o [3]
_SProut                 0x00050080    0x14  Code  Gb  xsprout.o [3]
__aeabi_cdcmple         0x0001d6c4          Code  Gb  DblCmpLe.o [4]
__aeabi_cdrcmple        0x0001d6fc          Code  Gb  DblCmpGe.o [4]
__aeabi_d2iz            0x0001d8fc          Code  Gb  DblToS32.o [4]
__aeabi_d2uiz           0x0001e0dc          Code  Gb  DblToU32.o [4]
__aeabi_dadd            0x0001ec88          Code  Gb  DblAdd.o [4]
__aeabi_ddiv            0x0001dda4          Code  Gb  DblDiv.o [4]
__aeabi_dmul            0x0001dbac          Code  Gb  DblMul.o [4]
__aeabi_dsub            0x0001d9bc          Code  Gb  DblSub.o [4]
__aeabi_errno_addr      0x00028900     0x8  Code  Gb  errno.o [3]
__aeabi_i2d             0x0001d95c          Code  Gb  S32ToDbl.o [4]
__aeabi_idiv            0x0000ba78          Code  Gb  I32DivMod.o [5]
__aeabi_idiv0           0x00010e5c          Code  Gb  IntDivZer.o [5]
__aeabi_idivmod         0x0000ba78          Code  Gb  I32DivMod.o [5]
__aeabi_ldiv0           0x0001ec84          Code  Gb  I64DivZer.o [5]
__aeabi_ldivmod         0x0001d520          Code  Gb  I64DivMod.o [5]
__aeabi_memcpy          0x00010d88          Code  Gb  ABImemcpy.o [5]
__aeabi_memcpy4         0x00010dac          Code  Gb  ABImemcpy.o [5]
__aeabi_memcpy8         0x00010dac          Code  Gb  ABImemcpy.o [5]
__aeabi_memset          0x0000bcc0          Code  Gb  ABImemset.o [5]
__aeabi_ui2d            0x0001e118          Code  Gb  U32ToDbl.o [4]
__aeabi_uidiv           0x0000ba88          Code  Gb  I32DivMod.o [5]
__aeabi_uidivmod        0x0000ba88          Code  Gb  I32DivMod.o [5]
__aeabi_uldivmod        0x0001d538          Code  Gb  I64DivMod.o [5]
__cmain                 0x0004f9c8          Code  Gb  cmain.o [5]
__exit                  0x0004fa00    0x20  Code  Gb  exit.o [6]
__iar_Dnorm             0x0001d648    0x7c  Code  Gb  xdnorm.o [4]
__iar_Dscale            0x0001d734   0x1c8  Code  Gb  xdscale.o [4]
__iar_Errno             0x00204f28     0x4  Data  Gb  errno.o [3]
__iar_Memchr            0x0000e0f8          Code  Gb  memchr.o [5]
__iar_Memset            0x0000bcc0          Code  Gb  ABImemset.o [5]
__iar_Memset_word       0x0000bccc          Code  Gb  ABImemset.o [5]
__iar_Stoul             0x000288a8     0x8  Code  Gb  xstoul.o [3]
__iar_Stoulx            0x000286e4   0x1c4  Code  Gb  xstoul.o [3]
__iar_Strchr            0x0001d500          Code  Gb  strchr.o [5]
__iar_copy_init3        0x000139bb    0x2e  Code  Gb  copy_init3.o [5]
__iar_dadd              0x0001ec98          Code  Gb  DblAdd.o [4]
__iar_data_init3        0x0004f898    0x54  Code  Gb  data_init3.o [5]
__iar_default_requirements$$_Printf<unknown>sprintf {Abs}
                        0x00000000           --   Gb  sprintf.o [3]
__iar_default_requirements$$_Printf<unknown>vsprintf {Abs}
                        0x00000000           --   Gb  vsprintf.o [3]
__iar_dlib_perthread_access
                        0x0002890c     0x4  Code  Gb  xtls.o [3]
__iar_dsub              0x0001d9cc          Code  Gb  DblSub.o [4]
__iar_dsubStart         0x0001d9ec          Code  Gb  DblSub.o [4]
__iar_i2d               0x0001d970          Code  Gb  S32ToDbl.o [4]
__iar_program_start     0x0004ede8          Code  Gb  Cstartup.o [1]
__iar_provide$$_Printf<flags,floats,hex_floats,int_specials,long_longs,n_formatters,qualifiers,widths>_PrintfFull {Abs}
                        0x00000000           --   Gb  xprintffull.o [3]
__iar_return_from_swi   0x00050c00     0x4  Code  Gb  xreturnswi.o [6]
__iar_zero_init3        0x0004f97d    0x28  Code  Gb  zero_init3.o [5]
__low_level_init        0x0004f9ec     0x8  Code  Gb  low_level_init.o [3]
__vector                0x00000000          Code  Gb  Cstartup.o [1]
_call_main              0x0004f9d8          Code  Gb  cmain.o [5]
_exit                   0x0004fa20          Code  Gb  cexit.o [5]
_main                   0x0004f9e0          Code  Gb  cmain.o [5]
addr_bus                0x0005081c     0xc  Data  Gb  var.o [1]
alling                  0x00050bcc     0x4  Data  Gb  DbugUsartApp.o [1]
at24                    0x00204d94    0x14  Data  Gb  var.o [1]
at24Device              0x0004f678    0xb0  Data  Gb  at24.o [1]
at45                    0x00204758    0x50  Data  Gb  var.o [1]
at45Devices             0x0004f5b0    0xc8  Data  Lc  at45.o [1]
at83                    0x00204a64    0x2c  Data  Gb  var.o [1]
at83ch                  0x002042f0    0xa0  Data  Gb  var.o [1]
atoi                    0x000286a4    0x20  Code  Gb  Keypad2.o [1]
backing                 0x00050348     0xc  Data  Gb  DbugUsartApp.o [1]
beep                    0x0005072c     0xc  Data  Gb  var.o [1]
begin_load_all          0x0004fdb0    0x18  Data  Gb  DbugUsartApp.o [1]
c26_config_init         0x00019208    0x4c  Code  Gb  at83.o [1]
c26_dcdca_start         0x00019254   0x198  Code  Gb  at83.o [1]
c26_dcdcb_start         0x000193ec   0x1b4  Code  Gb  at83.o [1]
c26_read                0x00018114   0x15c  Code  Gb  at83.o [1]
c26_read_cmd1           0x0001842c    0x48  Code  Gb  at83.o [1]
c26_read_cmd1_init      0x000183e4    0x48  Code  Gb  at83.o [1]
c26_read_cmd1_sc1_cfg1  0x0001854c    0x48  Code  Gb  at83.o [1]
c26_read_cmd1_sc1_cfg2  0x00018504    0x48  Code  Gb  at83.o [1]
c26_read_cmd1_sc1_cfg4  0x000184bc    0x48  Code  Gb  at83.o [1]
c26_read_cmd1_sc1_interface
                        0x00018474    0x48  Code  Gb  at83.o [1]
c26_read_cmd1_sc1_status
                        0x00018594    0x48  Code  Gb  at83.o [1]
c26_read_cmd2           0x000185dc    0x48  Code  Gb  at83.o [1]
c26_read_cmd2_interfaceb
                        0x0001866c    0x48  Code  Gb  at83.o [1]
c26_read_cmd2_io_select
                        0x000186b4    0x48  Code  Gb  at83.o [1]
c26_read_cmd2_itdis     0x00018624    0x48  Code  Gb  at83.o [1]
c26_read_cmd3           0x000186fc    0x48  Code  Gb  at83.o [1]
c26_read_cmd3_sc2_cfg0  0x0001878c    0x48  Code  Gb  at83.o [1]
c26_read_cmd3_sc2_cfg2  0x00018744    0x48  Code  Gb  at83.o [1]
c26_read_cmd4           0x000187d4    0x48  Code  Gb  at83.o [1]
c26_read_cmd4_sc3_cfg0  0x00018864    0x48  Code  Gb  at83.o [1]
c26_read_cmd4_sc3_cfg2  0x0001881c    0x48  Code  Gb  at83.o [1]
c26_read_cmd5           0x000188ac    0x48  Code  Gb  at83.o [1]
c26_read_cmd5_sc4_cfg0  0x0001893c    0x48  Code  Gb  at83.o [1]
c26_read_cmd5_sc4_cfg2  0x000188f4    0x48  Code  Gb  at83.o [1]
c26_read_cmd6           0x00018984    0x48  Code  Gb  at83.o [1]
c26_read_cmd6_sc5_cfg0  0x00018a14    0x48  Code  Gb  at83.o [1]
c26_read_cmd6_sc5_cfg2  0x000189cc    0x48  Code  Gb  at83.o [1]
c26_read_cmd7           0x00018a5c    0x48  Code  Gb  at83.o [1]
c26_read_cmd7_dcdcb     0x00018aa4    0x48  Code  Gb  at83.o [1]
c26_read_init           0x00017e04   0x174  Code  Gb  at83.o [1]
c26_select              0x00016ae4   0x618  Code  Gb  at83c26_app.o [1]
c26_start_cvcc1         0x000195a0    0x24  Code  Gb  at83.o [1]
c26_start_cvcc2         0x000195c4    0x5c  Code  Gb  at83.o [1]
c26_start_cvcc3         0x00019654    0x5c  Code  Gb  at83.o [1]
c26_start_cvcc4         0x000196e4    0x5c  Code  Gb  at83.o [1]
c26_start_cvcc5         0x00019774    0x5c  Code  Gb  at83.o [1]
c26_stop_cvcc2          0x00019620    0x34  Code  Gb  at83.o [1]
c26_stop_cvcc3          0x000196b0    0x34  Code  Gb  at83.o [1]
c26_stop_cvcc4          0x00019740    0x34  Code  Gb  at83.o [1]
c26_stop_cvcc5          0x000197d0    0x34  Code  Gb  at83.o [1]
c26_write               0x00018270   0x174  Code  Gb  at83.o [1]
c26_write_cmd10         0x000190a8    0x44  Code  Gb  at83.o [1]
c26_write_cmd10_sc5_cfg0
                        0x000190ec    0x44  Code  Gb  at83.o [1]
c26_write_cmd10_sc5_cfg2
                        0x00019130    0x50  Code  Gb  at83.o [1]
c26_write_cmd11         0x00019180    0x44  Code  Gb  at83.o [1]
c26_write_cmd11_dcdcb   0x000191c4    0x44  Code  Gb  at83.o [1]
c26_write_cmd2          0x00018aec    0x34  Code  Gb  at83.o [1]
c26_write_cmd3          0x00018b20    0x44  Code  Gb  at83.o [1]
c26_write_cmd3_sc1_cfg0
                        0x00018b64    0x4c  Code  Gb  at83.o [1]
c26_write_cmd3_sc1_cfg1
                        0x00018bb0    0x3c  Code  Gb  at83.o [1]
c26_write_cmd3_sc1_cfg2
                        0x00018bec    0x3c  Code  Gb  at83.o [1]
c26_write_cmd4          0x00018c28    0x44  Code  Gb  at83.o [1]
c26_write_cmd5          0x00018c6c    0x34  Code  Gb  at83.o [1]
c26_write_cmd5_sc1_interface
                        0x00018ca0    0x40  Code  Gb  at83.o [1]
c26_write_cmd6          0x00018ce0    0x44  Code  Gb  at83.o [1]
c26_write_cmd6_interfaceb
                        0x00018d68    0x50  Code  Gb  at83.o [1]
c26_write_cmd6_io_select
                        0x00018d24    0x44  Code  Gb  at83.o [1]
c26_write_cmd6_itdis    0x00018db8    0x50  Code  Gb  at83.o [1]
c26_write_cmd7          0x00018e08    0x44  Code  Gb  at83.o [1]
c26_write_cmd7_sc2_cfg0
                        0x00018e4c    0x44  Code  Gb  at83.o [1]
c26_write_cmd7_sc2_cfg2
                        0x00018e90    0x50  Code  Gb  at83.o [1]
c26_write_cmd8          0x00018ee0    0x50  Code  Gb  at83.o [1]
c26_write_cmd8_sc3_cfg0
                        0x00018f30    0x44  Code  Gb  at83.o [1]
c26_write_cmd8_sc3_cfg2
                        0x00018f74    0x5c  Code  Gb  at83.o [1]
c26_write_cmd9          0x00018fd0    0x44  Code  Gb  at83.o [1]
c26_write_cmd9_sc4_cfg0
                        0x00019014    0x44  Code  Gb  at83.o [1]
c26_write_cmd9_sc4_cfg2
                        0x00019058    0x50  Code  Gb  at83.o [1]
c26_write_init          0x00017f78   0x194  Code  Gb  at83.o [1]
cZimo4x5Addr            0x00050b3c     0x8  Data  Gb  lcd.o [1]
cZimo7x12Addr           0x00050b44     0x8  Data  Gb  lcd.o [1]
card_app_select_poweroff
                        0x0003abf4    0x3c  Code  Gb  ICCardInProc.o [1]
card_in                 0x000507a4     0xc  Data  Gb  var.o [1]
card_loyalty_app_deal   0x0003acb8    0x6c  Code  Gb  ICCardInProc.o [1]
card_open               0x00050798     0xc  Data  Gb  var.o [1]
card_saveoil_app_deal   0x0003ad24    0x38  Code  Gb  ICCardInProc.o [1]
card_sinopec_app_deal   0x0003ac34    0x84  Code  Gb  ICCardInProc.o [1]
chCtrl                  0x002047a8    0x50  Data  Gb  var.o [1]
command_err             0x00050164    0x10  Data  Gb  DbugUsartApp.o [1]
computer_zimo           0x00050b24     0x8  Data  Lc  lcd.o [1]
configing               0x000508ec     0x8  Data  Gb  DbugUsartApp.o [1]
cr_protected            0x00204840    0x44  Data  Gb  var.o [1]
ctrl_bus                0x00050828     0xc  Data  Gb  var.o [1]
data_bus                0x00050810     0xc  Data  Gb  var.o [1]
dbgu_buf                0x00202ea4   0x200  Data  Gb  DbugUsart.o [1]
dbug_flg                0x00204f64     0x1  Data  Lc  DbugUsartApp.o [1]
dbug_len                0x00204e88     0x4  Data  Lc  DbugUsartApp.o [1]
dbug_printf             0x000090f8    0x44  Code  Gb  DbugUsart.o [1]
dbug_usart              0x000507e0     0xc  Data  Gb  var.o [1]
delay                   0x00014b2c    0x18  Code  Gb  CardDrive.o [1]
digits                  0x000288b0    0x28  Data  Lc  xstoul.o [3]
div                     0x0001e128    0x38  Code  Gb  div.o [3]
download_g_code         0x0004fedc    0x14  Data  Gb  DbugUsartApp.o [1]
download_gcode_len      0x0004fd38    0x18  Data  Gb  DbugUsartApp.o [1]
download_ticket_head    0x0004fd20    0x18  Data  Gb  DbugUsartApp.o [1]
errno                   0x00204f24     0x4  Data  Gb  var.o [1]
exit                    0x0004f9f4     0xc  Code  Gb  exit.o [3]
exit_dbug               0x00050330     0xc  Data  Gb  DbugUsartApp.o [1]
exit_dbug_ok            0x00050154    0x10  Data  Gb  DbugUsartApp.o [1]
fiq                     0x00050780     0xc  Data  Gb  var.o [1]
flag                    0x00204f45     0x1  Data  Gb  CRCommand.o [1]
format_all_ok           0x0004fc98    0x1c  Data  Gb  list.o [1]
format_all_y_n          0x0004ff2c    0x14  Data  Gb  DbugUsartApp.o [1]
format_config_ok        0x0004fc44    0x1c  Data  Gb  list.o [1]
format_config_y_n       0x0004fd68    0x18  Data  Gb  DbugUsartApp.o [1]
format_log_ok           0x0004fc7c    0x1c  Data  Gb  list.o [1]
format_log_y_n          0x0004ff18    0x14  Data  Gb  DbugUsartApp.o [1]
format_protected_ok     0x0004fad4    0x20  Data  Gb  list.o [1]
format_protected_y_n    0x0004fd98    0x18  Data  Gb  DbugUsartApp.o [1]
format_record_ok        0x0004fc60    0x1c  Data  Gb  list.o [1]
format_record_y_n       0x0004fd80    0x18  Data  Gb  DbugUsartApp.o [1]
formated                0x0004fdc8    0x18  Data  Gb  DbugUsartApp.o [1]
formating               0x000508cc     0x8  Data  Gb  DbugUsartApp.o [1]
formatinging            0x0004ff40    0x14  Data  Gb  DbugUsartApp.o [1]
g_code                  0x000508d4     0x8  Data  Gb  DbugUsartApp.o [1]
g_code_len              0x000508dc     0x8  Data  Gb  DbugUsartApp.o [1]
gcode_data_err          0x0004fa74    0x20  Data  Gb  DbugUsartApp.o [1]
gcode_data_ok           0x0004fb64    0x1c  Data  Gb  DbugUsartApp.o [1]
irq0                    0x0005078c     0xc  Data  Gb  var.o [1]
irq1                    0x00050768     0xc  Data  Gb  var.o [1]
iso                     0x00203634   0x12c  Data  Gb  var.o [1]
iso7816                 0x000507d4     0xc  Data  Gb  var.o [1]
isoLimitFlg             0x00204f62     0x1  Data  Lc  CardDrive.o [1]
isolen                  0x00204f61     0x1  Data  Lc  CardDrive.o [1]
jump                    0x00050774     0xc  Data  Gb  var.o [1]
lcd_bl                  0x00050738     0xc  Data  Gb  var.o [1]
limit_flg               0x00204f7b     0x1  Data  Gb  PosVar.o [1]
loading                 0x000508c4     0x8  Data  Gb  DbugUsartApp.o [1]
log_ok                  0x0004ff04    0x14  Data  Gb  DbugUsartApp.o [1]
log_snd_ok              0x0004fef0    0x14  Data  Gb  DbugUsartApp.o [1]
loging                  0x00050bc8     0x4  Data  Gb  DbugUsartApp.o [1]
m1172                   0x00204a90    0x28  Data  Gb  var.o [1]
main                    0x0004f728    0xb0  Code  Gb  main.o [1]
mask12_down             0x00050b14     0x8  Data  Gb  lcd.o [1]
mask12_up               0x00050b1c     0x8  Data  Gb  lcd.o [1]
mask4x5_down            0x00050b04     0x8  Data  Gb  lcd.o [1]
mask4x5_up              0x00050b0c     0x8  Data  Gb  lcd.o [1]
mask_down               0x00050af4     0x8  Data  Gb  lcd.o [1]
mask_up                 0x00050afc     0x8  Data  Gb  lcd.o [1]
memchr                  0x0000e0f8          Code  Gb  memchr.o [5]
memcmp                  0x0000bc4c          Code  Gb  memcmp.o [5]
memcpy                  0x0000ba4c    0x2c  Code  Gb  tools.o [1]
memset                  0x0000730c    0x2c  Code  Gb  tc.o [1]
ndigs                   0x000288d8    0x28  Data  Lc  xstoul.o [3]
nexting                 0x000508f4     0x8  Data  Gb  DbugUsartApp.o [1]
no_allow                0x0004f9a4    0x24  Data  Gb  DbugUsartApp.o [1]
no_com                  0x00050c1e     0x2  Data  Gb  DbugUsartApp.o [1]
pBeepTmr                0x00204f08     0x4  Data  Gb  var.o [1]
pCommand                0x00204e8c     0x4  Data  Gb  DbugUsartApp.o [1]
pDbugTmr                0x00204e9c     0x4  Data  Lc  DbugUsartApp.o [1]
pLcdTmr                 0x00204f0c     0x4  Data  Gb  var.o [1]
pPrintFreeList          0x00204f1c     0x4  Data  Gb  var.o [1]
pPrintList              0x00204f20     0x4  Data  Gb  var.o [1]
pTimer1                 0x00204f18     0x4  Data  Gb  var.o [1]
pTmrCardSpring          0x00204e5c     0x4  Data  Lc  CRCommand.o [1]
pTmrCheckCrad           0x00204e58     0x4  Data  Lc  CRCommand.o [1]
pin_twi                 0x000507b0     0xc  Data  Gb  var.o [1]
pit_val                 0x00204e38     0x8  Data  Gb  var.o [1]
printStruct             0x00201068   0x800  Data  Gb  print.o [1]
print_dispose           0x00019fc8  0x32a8  Code  Gb  print.o [1]
prn_cts                 0x0005075c     0xc  Data  Gb  var.o [1]
protecting              0x00050354     0xc  Data  Gb  DbugUsartApp.o [1]
prt0_dt                 0x00050c28     0x2  Data  Lc  print.o [1]
pumpOffline             0x00050b34     0x8  Data  Lc  lcd.o [1]
pumpOnline              0x00050b2c     0x8  Data  Lc  lcd.o [1]
queue                   0x00202c9c   0x208  Data  Gb  var.o [1]
recevice_error          0x00050904     0x8  Data  Gb  DbugUsartApp.o [1]
recevice_ok             0x000508fc     0x8  Data  Gb  DbugUsartApp.o [1]
record_snd_ok           0x0004fd50    0x18  Data  Gb  DbugUsartApp.o [1]
recording               0x000508e4     0x8  Data  Gb  DbugUsartApp.o [1]
recording_ok            0x0005036c     0xc  Data  Gb  DbugUsartApp.o [1]
reset_typ               0x00204fac     0x1  Data  Gb  var.o [1]
residue                 0x00050aec     0x8  Data  Gb  lcd.o [1]
returning_ok            0x00050360     0xc  Data  Gb  DbugUsartApp.o [1]
run_led                 0x00050720     0xc  Data  Gb  var.o [1]
spi                     0x000507ec     0xc  Data  Gb  var.o [1]
spi_ncs1                0x000507f8     0xc  Data  Gb  var.o [1]
spi_ncs2                0x00050804     0xc  Data  Gb  var.o [1]
spi_status              0x00204f9d     0x1  Data  Gb  var.o [1]
spid                    0x00204de0    0x10  Data  Gb  var.o [1]
sprintf                 0x00010c70    0x5c  Code  Gb  sprintf.o [3]
start_dbug              0x00050324     0xc  Data  Gb  DbugUsartApp.o [1]
start_dbug_ok           0x00050124    0x10  Data  Gb  DbugUsartApp.o [1]
start_formating         0x00050144    0x10  Data  Gb  DbugUsartApp.o [1]
start_loading           0x00050134    0x10  Data  Gb  DbugUsartApp.o [1]
strchr                  0x0001d500          Code  Gb  strchr.o [5]
strlen                  0x000090a4          Code  Gb  strlen.o [5]
ticket_head             0x0005033c     0xc  Data  Gb  DbugUsartApp.o [1]
ticket_head_err         0x0004fa54    0x20  Data  Gb  DbugUsartApp.o [1]
ticket_head_ok          0x0004fb48    0x1c  Data  Gb  DbugUsartApp.o [1]
timer1_val              0x00204e30     0x8  Data  Gb  var.o [1]
timer_val               0x00204e28     0x8  Data  Gb  var.o [1]
twi_adr                 0x00050744     0xc  Data  Gb  var.o [1]
twid                    0x00204dfc     0xc  Data  Gb  var.o [1]
usart0                  0x000507bc     0xc  Data  Gb  var.o [1]
usart1                  0x000507c8     0xc  Data  Gb  var.o [1]
usbcnx                  0x00050750     0xc  Data  Gb  var.o [1]
vsprintf                0x0000e0ac    0x4c  Code  Gb  vsprintf.o [3]
x8modfify               0x0003868c    0x90  Code  Gb  Verify.o [1]
yes_com                 0x00050c1c     0x2  Data  Gb  DbugUsartApp.o [1]


[1] = D:\Gpay01\Gpay010511\Debug\Obj
[2] = command line
[3] = dl4t_aln.a
[4] = m4t_al.a
[5] = rt4t_al.a
[6] = shs_l.a

  310 708 bytes of readonly  code memory
   19 912 bytes of readonly  data memory
   26 741 bytes of readwrite data memory

Errors: none
Warnings: none
